
main.elf:     file format elf32-avr

Sections:
Idx Name          Size      VMA       LMA       File off  Algn
  0 .text         00003e38  00000000  00000000  00000094  2**1
                  CONTENTS, ALLOC, LOAD, READONLY, CODE
  1 .data         0000019a  00800060  00003e38  00003ecc  2**0
                  CONTENTS, ALLOC, LOAD, DATA
  2 .bss          0000018d  008001fa  008001fa  00004066  2**0
                  ALLOC
  3 .debug_aranges 00000100  00000000  00000000  00004066  2**0
                  CONTENTS, READONLY, DEBUGGING
  4 .debug_pubnames 000012eb  00000000  00000000  00004166  2**0
                  CONTENTS, READONLY, DEBUGGING
  5 .debug_info   00004203  00000000  00000000  00005451  2**0
                  CONTENTS, READONLY, DEBUGGING
  6 .debug_abbrev 00000fef  00000000  00000000  00009654  2**0
                  CONTENTS, READONLY, DEBUGGING
  7 .debug_line   000032b2  00000000  00000000  0000a643  2**0
                  CONTENTS, READONLY, DEBUGGING
  8 .debug_frame  00000a20  00000000  00000000  0000d8f8  2**2
                  CONTENTS, READONLY, DEBUGGING
  9 .debug_str    000018b7  00000000  00000000  0000e318  2**0
                  CONTENTS, READONLY, DEBUGGING
 10 .debug_loc    00002741  00000000  00000000  0000fbcf  2**0
                  CONTENTS, READONLY, DEBUGGING
 11 .debug_ranges 00000090  00000000  00000000  00012310  2**0
                  CONTENTS, READONLY, DEBUGGING

Disassembly of section .text:

00000000 <__vectors>:
       0:	0c 94 e2 00 	jmp	0x1c4	; 0x1c4 <__ctors_end>
       4:	0c 94 22 06 	jmp	0xc44	; 0xc44 <__vector_1>
       8:	0c 94 4f 06 	jmp	0xc9e	; 0xc9e <__vector_2>
       c:	0c 94 7c 06 	jmp	0xcf8	; 0xcf8 <__vector_3>
      10:	0c 94 ff 00 	jmp	0x1fe	; 0x1fe <__bad_interrupt>
      14:	0c 94 ff 00 	jmp	0x1fe	; 0x1fe <__bad_interrupt>
      18:	0c 94 ff 00 	jmp	0x1fe	; 0x1fe <__bad_interrupt>
      1c:	0c 94 ff 00 	jmp	0x1fe	; 0x1fe <__bad_interrupt>
      20:	0c 94 ff 00 	jmp	0x1fe	; 0x1fe <__bad_interrupt>
      24:	0c 94 ff 00 	jmp	0x1fe	; 0x1fe <__bad_interrupt>
      28:	0c 94 21 09 	jmp	0x1242	; 0x1242 <__vector_10>
      2c:	0c 94 ff 00 	jmp	0x1fe	; 0x1fe <__bad_interrupt>
      30:	0c 94 ff 00 	jmp	0x1fe	; 0x1fe <__bad_interrupt>
      34:	0c 94 ae 0a 	jmp	0x155c	; 0x155c <__vector_13>
      38:	0c 94 ff 00 	jmp	0x1fe	; 0x1fe <__bad_interrupt>
      3c:	0c 94 ff 00 	jmp	0x1fe	; 0x1fe <__bad_interrupt>
      40:	0c 94 ff 00 	jmp	0x1fe	; 0x1fe <__bad_interrupt>
      44:	0c 94 ff 00 	jmp	0x1fe	; 0x1fe <__bad_interrupt>
      48:	0c 94 ff 00 	jmp	0x1fe	; 0x1fe <__bad_interrupt>
      4c:	0c 94 60 0e 	jmp	0x1cc0	; 0x1cc0 <__vector_19>
      50:	0c 94 ff 00 	jmp	0x1fe	; 0x1fe <__bad_interrupt>

00000054 <__c.2045>:
      54:	7d 0a 00                                            }..

00000057 <__c.2043>:
      57:	7b 63 6d 64 3d 30 78 00                             {cmd=0x.

0000005f <__c.2017>:
      5f:	7d 0a 00                                            }..

00000062 <__c.2015>:
      62:	3b 76 61 6c 3d 30 78 00                             ;val=0x.

0000006a <__c.2013>:
      6a:	7b 63 6d 64 3d 30 78 00                             {cmd=0x.

00000072 <__c.2010>:
      72:	7d 0a 00                                            }..

00000075 <__c.2008>:
      75:	3b 76 61 6c 3d 30 78 00                             ;val=0x.

0000007d <__c.2006>:
      7d:	7b 63 6d 64 3d 30 78 00                             {cmd=0x.

00000085 <__c.1997>:
      85:	7d 0a 00                                            }..

00000088 <__c.1995>:
      88:	3b 76 61 6c 3d 30 78 00                             ;val=0x.

00000090 <__c.1993>:
      90:	7b 63 6d 64 3d 30 78 00                             {cmd=0x.

00000098 <__c.1975>:
      98:	0a 49 32 43 20 45 52 52 4f 52 20 2d 20 54 57 49     .I2C ERROR - TWI
      a8:	20 53 54 41 54 45 3a 20 30 78 00                     STATE: 0x.

000000b3 <__c.2140>:
      b3:	2e 2e 2e 64 6f 6e 65 2e 0a 00                       ...done...

000000bd <__c.2138>:
      bd:	53 74 61 72 74 20 72 75 6e 6e 69 6e 67 20 74 65     Start running te
      cd:	73 74 20 63 61 73 65 73 3a 0a 00                    st cases:..

000000d8 <__c.2129>:
      d8:	54 65 73 74 20 60 74 65 73 74 5f 63 6d 64 30 78     Test `test_cmd0x
      e8:	30 31 76 61 6c 75 65 30 78 30 32 72 65 71 75 65     01value0x02reque
      f8:	73 74 60 20 70 61 73 73 65 64 0a 00                 st` passed..

00000104 <__c.2117>:
     104:	54 65 73 74 20 60 74 65 73 74 5f 63 6d 64 30 78     Test `test_cmd0x
     114:	30 31 72 65 71 75 65 73 74 73 65 70 61 72 61 74     01requestseparat
     124:	6f 72 60 20 70 61 73 73 65 64 0a 00                 or` passed..

00000130 <__c.2105>:
     130:	54 65 73 74 20 60 74 65 73 74 5f 76 61 6c 75 65     Test `test_value
     140:	30 78 30 31 60 20 70 61 73 73 65 64 0a 00           0x01` passed..

0000014e <__c.2093>:
     14e:	54 65 73 74 20 60 74 65 73 74 5f 63 6d 64 30 78     Test `test_cmd0x
     15e:	30 31 72 65 71 75 65 73 74 60 20 70 61 73 73 65     01request` passe
     16e:	64 0a 00                                            d..

00000171 <__c.2079>:
     171:	54 65 73 74 20 60 74 65 73 74 5f 65 6d 70 74 79     Test `test_empty
     181:	5f 72 65 71 75 65 73 74 70 61 72 73 65 72 60 20     _requestparser` 
     191:	70 61 73 73 65 64 0a 00                             passed..

00000199 <__c.2069>:
     199:	2e 2e 2e 63 6c 65 61 6e 65 64 20 75 70 20 61 66     ...cleaned up af
     1a9:	74 65 72 20 74 65 73 74 2e 0a 00                    ter test...

000001b4 <__c.2064>:
     1b4:	0a 53 65 74 75 70 20 74 65 73 74 2e 2e 2e 00 00     .Setup test.....

000001c4 <__ctors_end>:
     1c4:	11 24       	eor	r1, r1
     1c6:	1f be       	out	0x3f, r1	; 63
     1c8:	cf e5       	ldi	r28, 0x5F	; 95
     1ca:	d8 e0       	ldi	r29, 0x08	; 8
     1cc:	de bf       	out	0x3e, r29	; 62
     1ce:	cd bf       	out	0x3d, r28	; 61

000001d0 <__do_copy_data>:
     1d0:	11 e0       	ldi	r17, 0x01	; 1
     1d2:	a0 e6       	ldi	r26, 0x60	; 96
     1d4:	b0 e0       	ldi	r27, 0x00	; 0
     1d6:	e8 e3       	ldi	r30, 0x38	; 56
     1d8:	fe e3       	ldi	r31, 0x3E	; 62
     1da:	02 c0       	rjmp	.+4      	; 0x1e0 <.do_copy_data_start>

000001dc <.do_copy_data_loop>:
     1dc:	05 90       	lpm	r0, Z+
     1de:	0d 92       	st	X+, r0

000001e0 <.do_copy_data_start>:
     1e0:	aa 3f       	cpi	r26, 0xFA	; 250
     1e2:	b1 07       	cpc	r27, r17
     1e4:	d9 f7       	brne	.-10     	; 0x1dc <.do_copy_data_loop>

000001e6 <__do_clear_bss>:
     1e6:	13 e0       	ldi	r17, 0x03	; 3
     1e8:	aa ef       	ldi	r26, 0xFA	; 250
     1ea:	b1 e0       	ldi	r27, 0x01	; 1
     1ec:	01 c0       	rjmp	.+2      	; 0x1f0 <.do_clear_bss_start>

000001ee <.do_clear_bss_loop>:
     1ee:	1d 92       	st	X+, r1

000001f0 <.do_clear_bss_start>:
     1f0:	a7 38       	cpi	r26, 0x87	; 135
     1f2:	b1 07       	cpc	r27, r17
     1f4:	e1 f7       	brne	.-8      	; 0x1ee <.do_clear_bss_loop>
     1f6:	0e 94 2a 02 	call	0x454	; 0x454 <main>
     1fa:	0c 94 1a 1f 	jmp	0x3e34	; 0x3e34 <_exit>

000001fe <__bad_interrupt>:
     1fe:	0c 94 00 00 	jmp	0	; 0x0 <__vectors>

00000202 <get_BatteryLevelAsPercentage>:
	writeChar('\n');
}

int get_BatteryLevelAsPercentage(void)
{
	return 900 / getBatteryLevel();
     202:	0e 94 52 10 	call	0x20a4	; 0x20a4 <getBatteryLevel>
     206:	bc 01       	movw	r22, r24
     208:	84 e8       	ldi	r24, 0x84	; 132
     20a:	93 e0       	ldi	r25, 0x03	; 3
     20c:	0e 94 ab 1c 	call	0x3956	; 0x3956 <__divmodhi4>
     210:	cb 01       	movw	r24, r22
}
     212:	08 95       	ret

00000214 <DoDataProcess>:

void DoDataProcess( void )
{
     214:	bf 92       	push	r11
     216:	cf 92       	push	r12
     218:	df 92       	push	r13
     21a:	ef 92       	push	r14
     21c:	ff 92       	push	r15
     21e:	0f 93       	push	r16
     220:	1f 93       	push	r17
     222:	df 93       	push	r29
     224:	cf 93       	push	r28
     226:	00 d0       	rcall	.+0      	; 0x228 <DoDataProcess+0x14>
     228:	00 d0       	rcall	.+0      	; 0x22a <DoDataProcess+0x16>
     22a:	cd b7       	in	r28, 0x3d	; 61
     22c:	de b7       	in	r29, 0x3e	; 62
	uint8_t nrOfCharsReceived = getBufferLength();	
     22e:	0e 94 27 0b 	call	0x164e	; 0x164e <getBufferLength>
	// check if no data was received
	if (nrOfCharsReceived == 0) return;
     232:	88 23       	and	r24, r24
     234:	09 f0       	breq	.+2      	; 0x238 <DoDataProcess+0x24>
     236:	f0 c0       	rjmp	.+480    	; 0x418 <DoDataProcess+0x204>
     238:	ff c0       	rjmp	.+510    	; 0x438 <DoDataProcess+0x224>
	
	static bool wrapped = false;

	while(getBufferLength() > 0)
	{
		char newchar = readChar();
     23a:	0e 94 e5 0a 	call	0x15ca	; 0x15ca <readChar>
     23e:	28 2f       	mov	r18, r24
		
		if(!wrapped)
     240:	80 91 00 02 	lds	r24, 0x0200
     244:	88 23       	and	r24, r24
     246:	31 f4       	brne	.+12     	; 0x254 <DoDataProcess+0x40>
		{
			if(newchar == '{')
     248:	2b 37       	cpi	r18, 0x7B	; 123
     24a:	09 f0       	breq	.+2      	; 0x24e <DoDataProcess+0x3a>
     24c:	f0 c0       	rjmp	.+480    	; 0x42e <DoDataProcess+0x21a>
			{
				wrapped = true;
     24e:	b0 92 00 02 	sts	0x0200, r11
     252:	ed c0       	rjmp	.+474    	; 0x42e <DoDataProcess+0x21a>
     254:	40 91 60 00 	lds	r20, 0x0060
     258:	50 91 61 00 	lds	r21, 0x0061
			}
			continue;
		}
		
		if(newchar == '}')
     25c:	2d 37       	cpi	r18, 0x7D	; 125
     25e:	09 f0       	breq	.+2      	; 0x262 <DoDataProcess+0x4e>
     260:	c7 c0       	rjmp	.+398    	; 0x3f0 <DoDataProcess+0x1dc>
		{					
			if(index > -1)
     262:	57 fd       	sbrc	r21, 7
     264:	be c0       	rjmp	.+380    	; 0x3e2 <DoDataProcess+0x1ce>
			{				
				//parse request
				REQUEST_STRUCT request = {0, 0};
     266:	1a 82       	std	Y+2, r1	; 0x02
     268:	19 82       	std	Y+1, r1	; 0x01
     26a:	1c 82       	std	Y+4, r1	; 0x04
     26c:	1b 82       	std	Y+3, r1	; 0x03
				parseRequest(&request, receiveBuffer, (index+1));
     26e:	4f 5f       	subi	r20, 0xFF	; 255
     270:	5f 4f       	sbci	r21, 0xFF	; 255
     272:	c6 01       	movw	r24, r12
     274:	61 e0       	ldi	r22, 0x01	; 1
     276:	72 e0       	ldi	r23, 0x02	; 2
     278:	0e 94 17 05 	call	0xa2e	; 0xa2e <parseRequest>
				
				writeString_P("{cmd=0x");
     27c:	80 e9       	ldi	r24, 0x90	; 144
     27e:	90 e0       	ldi	r25, 0x00	; 0
     280:	0e 94 95 0a 	call	0x152a	; 0x152a <writeNStringP>
				writeInteger(request.cmd, HEX);
     284:	89 81       	ldd	r24, Y+1	; 0x01
     286:	9a 81       	ldd	r25, Y+2	; 0x02
     288:	60 e1       	ldi	r22, 0x10	; 16
     28a:	0e 94 3d 0b 	call	0x167a	; 0x167a <writeInteger>
				writeString_P(";val=0x");
     28e:	88 e8       	ldi	r24, 0x88	; 136
     290:	90 e0       	ldi	r25, 0x00	; 0
     292:	0e 94 95 0a 	call	0x152a	; 0x152a <writeNStringP>
				writeInteger(request.val, HEX);
     296:	8b 81       	ldd	r24, Y+3	; 0x03
     298:	9c 81       	ldd	r25, Y+4	; 0x04
     29a:	60 e1       	ldi	r22, 0x10	; 16
     29c:	0e 94 3d 0b 	call	0x167a	; 0x167a <writeInteger>
				writeString_P("}\n");
     2a0:	85 e8       	ldi	r24, 0x85	; 133
     2a2:	90 e0       	ldi	r25, 0x00	; 0
     2a4:	0e 94 95 0a 	call	0x152a	; 0x152a <writeNStringP>
				
				switch(request.cmd)
     2a8:	89 81       	ldd	r24, Y+1	; 0x01
     2aa:	9a 81       	ldd	r25, Y+2	; 0x02
     2ac:	84 30       	cpi	r24, 0x04	; 4
     2ae:	91 05       	cpc	r25, r1
     2b0:	09 f4       	brne	.+2      	; 0x2b4 <DoDataProcess+0xa0>
     2b2:	4d c0       	rjmp	.+154    	; 0x34e <DoDataProcess+0x13a>
     2b4:	85 30       	cpi	r24, 0x05	; 5
     2b6:	91 05       	cpc	r25, r1
     2b8:	50 f4       	brcc	.+20     	; 0x2ce <DoDataProcess+0xba>
     2ba:	82 30       	cpi	r24, 0x02	; 2
     2bc:	91 05       	cpc	r25, r1
     2be:	71 f1       	breq	.+92     	; 0x31c <DoDataProcess+0x108>
     2c0:	83 30       	cpi	r24, 0x03	; 3
     2c2:	91 05       	cpc	r25, r1
     2c4:	c0 f5       	brcc	.+112    	; 0x336 <DoDataProcess+0x122>
     2c6:	01 97       	sbiw	r24, 0x01	; 1
     2c8:	09 f0       	breq	.+2      	; 0x2cc <DoDataProcess+0xb8>
     2ca:	8b c0       	rjmp	.+278    	; 0x3e2 <DoDataProcess+0x1ce>
     2cc:	0d c0       	rjmp	.+26     	; 0x2e8 <DoDataProcess+0xd4>
     2ce:	86 30       	cpi	r24, 0x06	; 6
     2d0:	91 05       	cpc	r25, r1
     2d2:	09 f4       	brne	.+2      	; 0x2d6 <DoDataProcess+0xc2>
     2d4:	59 c0       	rjmp	.+178    	; 0x388 <DoDataProcess+0x174>
     2d6:	86 30       	cpi	r24, 0x06	; 6
     2d8:	91 05       	cpc	r25, r1
     2da:	08 f4       	brcc	.+2      	; 0x2de <DoDataProcess+0xca>
     2dc:	6a c0       	rjmp	.+212    	; 0x3b2 <DoDataProcess+0x19e>
     2de:	8f 3f       	cpi	r24, 0xFF	; 255
     2e0:	91 05       	cpc	r25, r1
     2e2:	09 f0       	breq	.+2      	; 0x2e6 <DoDataProcess+0xd2>
     2e4:	7e c0       	rjmp	.+252    	; 0x3e2 <DoDataProcess+0x1ce>
     2e6:	47 c0       	rjmp	.+142    	; 0x376 <DoDataProcess+0x162>
				{
					case CMD_MOVE_FORWARD:
					{		
						if(move_horizontal<=0)
     2e8:	80 91 fa 01 	lds	r24, 0x01FA
     2ec:	90 91 fb 01 	lds	r25, 0x01FB
     2f0:	18 16       	cp	r1, r24
     2f2:	19 06       	cpc	r1, r25
     2f4:	0c f4       	brge	.+2      	; 0x2f8 <DoDataProcess+0xe4>
     2f6:	3f c0       	rjmp	.+126    	; 0x376 <DoDataProcess+0x162>
						{
							move_horizontal = request.val;
     2f8:	2b 81       	ldd	r18, Y+3	; 0x03
     2fa:	3c 81       	ldd	r19, Y+4	; 0x04
     2fc:	20 93 fa 01 	sts	0x01FA, r18
     300:	30 93 fb 01 	sts	0x01FB, r19
							if (request.val > topSpeed)
     304:	80 91 fe 01 	lds	r24, 0x01FE
     308:	90 91 ff 01 	lds	r25, 0x01FF
     30c:	82 17       	cp	r24, r18
     30e:	93 07       	cpc	r25, r19
     310:	b0 f5       	brcc	.+108    	; 0x37e <DoDataProcess+0x16a>
							{
								topSpeed = request.val;
     312:	20 93 fe 01 	sts	0x01FE, r18
     316:	30 93 ff 01 	sts	0x01FF, r19
     31a:	31 c0       	rjmp	.+98     	; 0x37e <DoDataProcess+0x16a>
						move_turning = 0;
						break;
					}
					case CMD_MOVE_BACKWARD:
					{		
						if(move_horizontal>=0)
     31c:	80 91 fa 01 	lds	r24, 0x01FA
     320:	90 91 fb 01 	lds	r25, 0x01FB
     324:	97 fd       	sbrc	r25, 7
     326:	27 c0       	rjmp	.+78     	; 0x376 <DoDataProcess+0x162>
						{
							move_horizontal = request.val;
     328:	8b 81       	ldd	r24, Y+3	; 0x03
     32a:	9c 81       	ldd	r25, Y+4	; 0x04
     32c:	90 93 fb 01 	sts	0x01FB, r25
     330:	80 93 fa 01 	sts	0x01FA, r24
     334:	24 c0       	rjmp	.+72     	; 0x37e <DoDataProcess+0x16a>
						move_turning = 0;
						break;
					}
					case CMD_MOVE_LEFT:
					{		
						if(move_turning<=0)
     336:	80 91 fc 01 	lds	r24, 0x01FC
     33a:	90 91 fd 01 	lds	r25, 0x01FD
     33e:	18 16       	cp	r1, r24
     340:	19 06       	cpc	r1, r25
     342:	84 f0       	brlt	.+32     	; 0x364 <DoDataProcess+0x150>
						{
							move_turning = 1;
     344:	f0 92 fd 01 	sts	0x01FD, r15
     348:	e0 92 fc 01 	sts	0x01FC, r14
     34c:	0f c0       	rjmp	.+30     	; 0x36c <DoDataProcess+0x158>
						move_horizontal = 0;
						break;
					}
					case CMD_MOVE_RIGHT:
					{		
						if(move_turning >= 0)
     34e:	80 91 fc 01 	lds	r24, 0x01FC
     352:	90 91 fd 01 	lds	r25, 0x01FD
     356:	97 fd       	sbrc	r25, 7
     358:	05 c0       	rjmp	.+10     	; 0x364 <DoDataProcess+0x150>
						{
							move_turning = -1;
     35a:	10 93 fd 01 	sts	0x01FD, r17
     35e:	00 93 fc 01 	sts	0x01FC, r16
     362:	04 c0       	rjmp	.+8      	; 0x36c <DoDataProcess+0x158>
						}
						else
						{
							move_turning = 0;
     364:	10 92 fd 01 	sts	0x01FD, r1
     368:	10 92 fc 01 	sts	0x01FC, r1
						}
						move_horizontal = 0;
     36c:	10 92 fb 01 	sts	0x01FB, r1
     370:	10 92 fa 01 	sts	0x01FA, r1
     374:	36 c0       	rjmp	.+108    	; 0x3e2 <DoDataProcess+0x1ce>
						break;
					}
					case CMD_STOP_MOVING:
					{
						move_horizontal = 0;
     376:	10 92 fb 01 	sts	0x01FB, r1
     37a:	10 92 fa 01 	sts	0x01FA, r1
						move_turning = 0;
     37e:	10 92 fd 01 	sts	0x01FD, r1
     382:	10 92 fc 01 	sts	0x01FC, r1
     386:	2d c0       	rjmp	.+90     	; 0x3e2 <DoDataProcess+0x1ce>
						break;
					}
					case CMD_GET_FUELLVL:
					{
						writeString_P("{cmd=0x");
     388:	8d e7       	ldi	r24, 0x7D	; 125
     38a:	90 e0       	ldi	r25, 0x00	; 0
     38c:	0e 94 95 0a 	call	0x152a	; 0x152a <writeNStringP>
						writeInteger(request.cmd, HEX);
     390:	89 81       	ldd	r24, Y+1	; 0x01
     392:	9a 81       	ldd	r25, Y+2	; 0x02
     394:	60 e1       	ldi	r22, 0x10	; 16
     396:	0e 94 3d 0b 	call	0x167a	; 0x167a <writeInteger>
						writeString_P(";val=0x");
     39a:	85 e7       	ldi	r24, 0x75	; 117
     39c:	90 e0       	ldi	r25, 0x00	; 0
     39e:	0e 94 95 0a 	call	0x152a	; 0x152a <writeNStringP>
						writeInteger(get_BatteryLevelAsPercentage(), HEX);
     3a2:	0e 94 01 01 	call	0x202	; 0x202 <get_BatteryLevelAsPercentage>
     3a6:	60 e1       	ldi	r22, 0x10	; 16
     3a8:	0e 94 3d 0b 	call	0x167a	; 0x167a <writeInteger>
						writeString_P("}\n");
     3ac:	82 e7       	ldi	r24, 0x72	; 114
     3ae:	90 e0       	ldi	r25, 0x00	; 0
     3b0:	16 c0       	rjmp	.+44     	; 0x3de <DoDataProcess+0x1ca>
						break;
					}
					
					case CMD_GET_SPEED:
					{
						writeString_P("{cmd=0x");
     3b2:	8a e6       	ldi	r24, 0x6A	; 106
     3b4:	90 e0       	ldi	r25, 0x00	; 0
     3b6:	0e 94 95 0a 	call	0x152a	; 0x152a <writeNStringP>
						writeInteger(request.cmd, HEX);
     3ba:	89 81       	ldd	r24, Y+1	; 0x01
     3bc:	9a 81       	ldd	r25, Y+2	; 0x02
     3be:	60 e1       	ldi	r22, 0x10	; 16
     3c0:	0e 94 3d 0b 	call	0x167a	; 0x167a <writeInteger>
						writeString_P(";val=0x");
     3c4:	82 e6       	ldi	r24, 0x62	; 98
     3c6:	90 e0       	ldi	r25, 0x00	; 0
     3c8:	0e 94 95 0a 	call	0x152a	; 0x152a <writeNStringP>
						writeInteger(topSpeed, HEX);
     3cc:	80 91 fe 01 	lds	r24, 0x01FE
     3d0:	90 91 ff 01 	lds	r25, 0x01FF
     3d4:	60 e1       	ldi	r22, 0x10	; 16
     3d6:	0e 94 3d 0b 	call	0x167a	; 0x167a <writeInteger>
						writeString_P("}\n");
     3da:	8f e5       	ldi	r24, 0x5F	; 95
     3dc:	90 e0       	ldi	r25, 0x00	; 0
     3de:	0e 94 95 0a 	call	0x152a	; 0x152a <writeNStringP>
					}
				}
				
				//
			}
			wrapped = false;
     3e2:	10 92 00 02 	sts	0x0200, r1
			index = -1;
     3e6:	10 93 61 00 	sts	0x0061, r17
     3ea:	00 93 60 00 	sts	0x0060, r16
     3ee:	1f c0       	rjmp	.+62     	; 0x42e <DoDataProcess+0x21a>
			continue;
		}
		
		receiveBuffer[++index] = newchar;
     3f0:	ca 01       	movw	r24, r20
     3f2:	01 96       	adiw	r24, 0x01	; 1
     3f4:	90 93 61 00 	sts	0x0061, r25
     3f8:	80 93 60 00 	sts	0x0060, r24
     3fc:	fc 01       	movw	r30, r24
     3fe:	ef 5f       	subi	r30, 0xFF	; 255
     400:	fd 4f       	sbci	r31, 0xFD	; 253
     402:	20 83       	st	Z, r18

		//- reserve the last character of the buffer for '\0' character
		//- check not to write outside array boundaries.	
		if (index > (RECEIVE_BUFFER_SIZE-2)) //loop from 0 to (RECEIVE_BUFFER_SIZE-)
     404:	84 36       	cpi	r24, 0x64	; 100
     406:	91 05       	cpc	r25, r1
     408:	94 f0       	brlt	.+36     	; 0x42e <DoDataProcess+0x21a>
		{
			index = -1;
     40a:	10 93 61 00 	sts	0x0061, r17
     40e:	00 93 60 00 	sts	0x0060, r16
			wrapped = false;
     412:	10 92 00 02 	sts	0x0200, r1
     416:	0b c0       	rjmp	.+22     	; 0x42e <DoDataProcess+0x21a>

		//- reserve the last character of the buffer for '\0' character
		//- check not to write outside array boundaries.	
		if (index > (RECEIVE_BUFFER_SIZE-2)) //loop from 0 to (RECEIVE_BUFFER_SIZE-)
		{
			index = -1;
     418:	0f ef       	ldi	r16, 0xFF	; 255
     41a:	1f ef       	ldi	r17, 0xFF	; 255
		{					
			if(index > -1)
			{				
				//parse request
				REQUEST_STRUCT request = {0, 0};
				parseRequest(&request, receiveBuffer, (index+1));
     41c:	6e 01       	movw	r12, r28
     41e:	08 94       	sec
     420:	c1 1c       	adc	r12, r1
     422:	d1 1c       	adc	r13, r1
					}
					case CMD_MOVE_LEFT:
					{		
						if(move_turning<=0)
						{
							move_turning = 1;
     424:	81 e0       	ldi	r24, 0x01	; 1
     426:	e8 2e       	mov	r14, r24
     428:	f1 2c       	mov	r15, r1
		
		if(!wrapped)
		{
			if(newchar == '{')
			{
				wrapped = true;
     42a:	bb 24       	eor	r11, r11
     42c:	b3 94       	inc	r11
	static char receiveBuffer[RECEIVE_BUFFER_SIZE];
	static int index = -1;
	
	static bool wrapped = false;

	while(getBufferLength() > 0)
     42e:	0e 94 27 0b 	call	0x164e	; 0x164e <getBufferLength>
     432:	88 23       	and	r24, r24
     434:	09 f0       	breq	.+2      	; 0x438 <DoDataProcess+0x224>
     436:	01 cf       	rjmp	.-510    	; 0x23a <DoDataProcess+0x26>
			wrapped = false;
			//THROW 'exception'/Error
			continue;
		}
	}
}
     438:	0f 90       	pop	r0
     43a:	0f 90       	pop	r0
     43c:	0f 90       	pop	r0
     43e:	0f 90       	pop	r0
     440:	cf 91       	pop	r28
     442:	df 91       	pop	r29
     444:	1f 91       	pop	r17
     446:	0f 91       	pop	r16
     448:	ff 90       	pop	r15
     44a:	ef 90       	pop	r14
     44c:	df 90       	pop	r13
     44e:	cf 90       	pop	r12
     450:	bf 90       	pop	r11
     452:	08 95       	ret

00000454 <main>:

int main(void)
{
	initRP6Control(); // Always call this first! 
     454:	0e 94 09 0a 	call	0x1412	; 0x1412 <initRP6Control>
	                  // The Processor will not work correctly otherwise.
					 
	initLCD(); // Initialize the LC-Display (LCD)
     458:	0e 94 c1 07 	call	0xf82	; 0xf82 <initLCD>
			   // Always call this before using the LCD!

	// Play two sounds with the Piezo Beeper on the RP6Control:
	sound(180,80,25);
     45c:	84 eb       	ldi	r24, 0xB4	; 180
     45e:	60 e5       	ldi	r22, 0x50	; 80
     460:	70 e0       	ldi	r23, 0x00	; 0
     462:	0e 94 ca 09 	call	0x1394	; 0x1394 <beep>
     466:	89 e6       	ldi	r24, 0x69	; 105
     468:	90 e0       	ldi	r25, 0x00	; 0
     46a:	0e 94 f4 09 	call	0x13e8	; 0x13e8 <mSleep>
	sound(220,80,0);
     46e:	8c ed       	ldi	r24, 0xDC	; 220
     470:	60 e5       	ldi	r22, 0x50	; 80
     472:	70 e0       	ldi	r23, 0x00	; 0
     474:	0e 94 ca 09 	call	0x1394	; 0x1394 <beep>
     478:	80 e5       	ldi	r24, 0x50	; 80
     47a:	90 e0       	ldi	r25, 0x00	; 0
     47c:	0e 94 f4 09 	call	0x13e8	; 0x13e8 <mSleep>
	
	//IMPORTANT:
	I2CTWI_initMaster(100); // Initialize the TWI Module for Master operation
     480:	88 e4       	ldi	r24, 0x48	; 72
     482:	0e 94 9e 0b 	call	0x173c	; 0x173c <__I2CTWI_initMaster>
	// with 100kHz SCL Frequency
	
	// Register the event handlers:
	I2CTWI_setTransmissionErrorHandler(I2C_transmissionError);
     486:	8e e8       	ldi	r24, 0x8E	; 142
     488:	92 e0       	ldi	r25, 0x02	; 2
     48a:	0e 94 b3 0b 	call	0x1766	; 0x1766 <I2CTWI_setTransmissionErrorHandler>

	// Write a text message to the UART:
	writeString_P("{cmd=0x");
     48e:	87 e5       	ldi	r24, 0x57	; 87
     490:	90 e0       	ldi	r25, 0x00	; 0
     492:	0e 94 95 0a 	call	0x152a	; 0x152a <writeNStringP>
	writeInteger(CMD_LIFETIME, HEX);
     496:	8f ee       	ldi	r24, 0xEF	; 239
     498:	90 e0       	ldi	r25, 0x00	; 0
     49a:	60 e1       	ldi	r22, 0x10	; 16
     49c:	0e 94 3d 0b 	call	0x167a	; 0x167a <writeInteger>
	writeString_P("}\n");
     4a0:	84 e5       	ldi	r24, 0x54	; 84
     4a2:	90 e0       	ldi	r25, 0x00	; 0
     4a4:	0e 94 95 0a 	call	0x152a	; 0x152a <writeNStringP>
	
	run_testCases();
     4a8:	0e 94 a8 02 	call	0x550	; 0x550 <run_testCases>
	
	// Define a counting variable:
	//uint16_t counter = 0;
	
	// clear the UART buffer once at the start of the program
	clearReceptionBuffer();
     4ac:	0e 94 2d 0b 	call	0x165a	; 0x165a <clearReceptionBuffer>
	
	
	mSleep(1000);
     4b0:	88 ee       	ldi	r24, 0xE8	; 232
     4b2:	93 e0       	ldi	r25, 0x03	; 3
     4b4:	0e 94 f4 09 	call	0x13e8	; 0x13e8 <mSleep>
	
	setStopwatch1(500);
     4b8:	84 ef       	ldi	r24, 0xF4	; 244
     4ba:	91 e0       	ldi	r25, 0x01	; 1
     4bc:	90 93 05 03 	sts	0x0305, r25
     4c0:	80 93 04 03 	sts	0x0304, r24
	startStopwatch1();
     4c4:	80 91 03 03 	lds	r24, 0x0303
     4c8:	81 60       	ori	r24, 0x01	; 1
     4ca:	80 93 03 03 	sts	0x0303, r24
	
	while(true)
	{
		//example of receiving some data over UART
		DoDataProcess();
     4ce:	0e 94 0a 01 	call	0x214	; 0x214 <DoDataProcess>
		
		if(move_turning!=0)
     4d2:	80 91 fc 01 	lds	r24, 0x01FC
     4d6:	90 91 fd 01 	lds	r25, 0x01FD
     4da:	00 97       	sbiw	r24, 0x00	; 0
     4dc:	69 f0       	breq	.+26     	; 0x4f8 <main+0xa4>
		{
			if(move_turning == 1)
     4de:	01 97       	sbiw	r24, 0x01	; 1
     4e0:	19 f4       	brne	.+6      	; 0x4e8 <main+0x94>
			{
				rotate(60, LEFT, 3, false);
     4e2:	8c e3       	ldi	r24, 0x3C	; 60
     4e4:	62 e0       	ldi	r22, 0x02	; 2
     4e6:	02 c0       	rjmp	.+4      	; 0x4ec <main+0x98>
			}
			else
			{
				rotate(60, RIGHT, 3, false);
     4e8:	8c e3       	ldi	r24, 0x3C	; 60
     4ea:	63 e0       	ldi	r22, 0x03	; 3
     4ec:	43 e0       	ldi	r20, 0x03	; 3
     4ee:	50 e0       	ldi	r21, 0x00	; 0
     4f0:	20 e0       	ldi	r18, 0x00	; 0
     4f2:	0e 94 2e 10 	call	0x205c	; 0x205c <rotate>
     4f6:	eb cf       	rjmp	.-42     	; 0x4ce <main+0x7a>
			}
		}
		else		
		if(move_horizontal != 0)
     4f8:	80 91 fa 01 	lds	r24, 0x01FA
     4fc:	90 91 fb 01 	lds	r25, 0x01FB
     500:	00 97       	sbiw	r24, 0x00	; 0
     502:	29 f3       	breq	.-54     	; 0x4ce <main+0x7a>
		{
			if(move_horizontal > 0)
     504:	18 16       	cp	r1, r24
     506:	19 06       	cpc	r1, r25
     508:	14 f4       	brge	.+4      	; 0x50e <main+0xba>
			{
				move(move_horizontal, FWD, 3, false);
     50a:	60 e0       	ldi	r22, 0x00	; 0
     50c:	01 c0       	rjmp	.+2      	; 0x510 <main+0xbc>
			}
			else
			{
				move(move_horizontal, BWD, 3, false);
     50e:	61 e0       	ldi	r22, 0x01	; 1
     510:	43 e0       	ldi	r20, 0x03	; 3
     512:	50 e0       	ldi	r21, 0x00	; 0
     514:	20 e0       	ldi	r18, 0x00	; 0
     516:	0e 94 0a 10 	call	0x2014	; 0x2014 <move>
     51a:	d9 cf       	rjmp	.-78     	; 0x4ce <main+0x7a>

0000051c <I2C_transmissionError>:
 *   - slave not active or not connected to the I2C-Bus
 *   - too fast requests for a slower slave
 * Be sure to check this if you get I2C errors!
 */
void I2C_transmissionError(uint8_t errorState)
{
     51c:	1f 93       	push	r17
     51e:	18 2f       	mov	r17, r24
	writeString_P("\nI2C ERROR - TWI STATE: 0x");
     520:	88 e9       	ldi	r24, 0x98	; 152
     522:	90 e0       	ldi	r25, 0x00	; 0
     524:	0e 94 95 0a 	call	0x152a	; 0x152a <writeNStringP>
	writeInteger(errorState, HEX);
     528:	81 2f       	mov	r24, r17
     52a:	90 e0       	ldi	r25, 0x00	; 0
     52c:	60 e1       	ldi	r22, 0x10	; 16
     52e:	0e 94 3d 0b 	call	0x167a	; 0x167a <writeInteger>
	writeChar('\n');
     532:	8a e0       	ldi	r24, 0x0A	; 10
     534:	0e 94 87 0a 	call	0x150e	; 0x150e <writeChar>
}
     538:	1f 91       	pop	r17
     53a:	08 95       	ret

0000053c <tearDown>:
	writeString_P("\nSetup test...");
}

void tearDown(void)
{
	writeString_P("...cleaned up after test.\n");
     53c:	89 e9       	ldi	r24, 0x99	; 153
     53e:	91 e0       	ldi	r25, 0x01	; 1
     540:	0e 94 95 0a 	call	0x152a	; 0x152a <writeNStringP>
}
     544:	08 95       	ret

00000546 <setUp>:
}


void setUp(void) 
{
	writeString_P("\nSetup test...");
     546:	84 eb       	ldi	r24, 0xB4	; 180
     548:	91 e0       	ldi	r25, 0x01	; 1
     54a:	0e 94 95 0a 	call	0x152a	; 0x152a <writeNStringP>
}
     54e:	08 95       	ret

00000550 <run_testCases>:
}


void run_testCases(void) 
{
	writeString_P("Start running test cases:\n");
     550:	8d eb       	ldi	r24, 0xBD	; 189
     552:	90 e0       	ldi	r25, 0x00	; 0
     554:	0e 94 95 0a 	call	0x152a	; 0x152a <writeNStringP>
	UnityBegin();
     558:	0e 94 21 11 	call	0x2242	; 0x2242 <UnityBegin>
	//RUN_TEST(test_empty_requestparser,1);
	//RUN_TEST(test_cmd0x01request,2);
	//RUN_TEST(test_value0x01,3);
	//RUN_TEST(test_cmd0x01requestseparator,4);
	RUN_TEST(test_cmd0x01value0x02request,5);
     55c:	8d eb       	ldi	r24, 0xBD	; 189
     55e:	92 e0       	ldi	r25, 0x02	; 2
     560:	62 e6       	ldi	r22, 0x62	; 98
     562:	70 e0       	ldi	r23, 0x00	; 0
     564:	45 e0       	ldi	r20, 0x05	; 5
     566:	50 e0       	ldi	r21, 0x00	; 0
     568:	0e 94 11 14 	call	0x2822	; 0x2822 <UnityDefaultTestRun>
	UnityEnd();
     56c:	0e 94 0b 13 	call	0x2616	; 0x2616 <UnityEnd>
	writeString_P("...done.\n");
     570:	83 eb       	ldi	r24, 0xB3	; 179
     572:	90 e0       	ldi	r25, 0x00	; 0
     574:	0e 94 95 0a 	call	0x152a	; 0x152a <writeNStringP>
}
     578:	08 95       	ret

0000057a <test_cmd0x01value0x02request>:
	}
	writeString_P("Test `test_cmd0x01requestseparator` passed\n");
}

void test_cmd0x01value0x02request(void)
{
     57a:	8f 92       	push	r8
     57c:	9f 92       	push	r9
     57e:	af 92       	push	r10
     580:	bf 92       	push	r11
     582:	cf 92       	push	r12
     584:	ef 92       	push	r14
     586:	0f 93       	push	r16
     588:	1f 93       	push	r17
     58a:	df 93       	push	r29
     58c:	cf 93       	push	r28
     58e:	00 d0       	rcall	.+0      	; 0x590 <test_cmd0x01value0x02request+0x16>
     590:	00 d0       	rcall	.+0      	; 0x592 <test_cmd0x01value0x02request+0x18>
     592:	cd b7       	in	r28, 0x3d	; 61
     594:	de b7       	in	r29, 0x3e	; 62
	REQUEST_STRUCT request = {0,0};
     596:	1a 82       	std	Y+2, r1	; 0x02
     598:	19 82       	std	Y+1, r1	; 0x01
     59a:	1c 82       	std	Y+4, r1	; 0x04
     59c:	1b 82       	std	Y+3, r1	; 0x03
     59e:	aa 24       	eor	r10, r10
     5a0:	bb 24       	eor	r11, r11
	for(int i = 0; i < 10; i++)//multiple loops to check for data corruption
	{		
		parseRequest(&request, "cmd=0x01;val=0x02", strlen("cmd=0x01;val=0x02"));
     5a2:	4e 01       	movw	r8, r28
     5a4:	08 94       	sec
     5a6:	81 1c       	adc	r8, r1
     5a8:	91 1c       	adc	r9, r1
     5aa:	c4 01       	movw	r24, r8
     5ac:	6f e7       	ldi	r22, 0x7F	; 127
     5ae:	70 e0       	ldi	r23, 0x00	; 0
     5b0:	41 e1       	ldi	r20, 0x11	; 17
     5b2:	50 e0       	ldi	r21, 0x00	; 0
     5b4:	0e 94 17 05 	call	0xa2e	; 0xa2e <parseRequest>
		TEST_ASSERT_EQUAL(0, request.cmd);
     5b8:	29 81       	ldd	r18, Y+1	; 0x01
     5ba:	3a 81       	ldd	r19, Y+2	; 0x02
     5bc:	40 e0       	ldi	r20, 0x00	; 0
     5be:	50 e0       	ldi	r21, 0x00	; 0
     5c0:	60 e0       	ldi	r22, 0x00	; 0
     5c2:	70 e0       	ldi	r23, 0x00	; 0
     5c4:	80 e0       	ldi	r24, 0x00	; 0
     5c6:	90 e0       	ldi	r25, 0x00	; 0
     5c8:	00 e0       	ldi	r16, 0x00	; 0
     5ca:	10 e0       	ldi	r17, 0x00	; 0
     5cc:	ac e4       	ldi	r26, 0x4C	; 76
     5ce:	ea 2e       	mov	r14, r26
     5d0:	f4 e9       	ldi	r31, 0x94	; 148
     5d2:	cf 2e       	mov	r12, r31
     5d4:	0e 94 54 16 	call	0x2ca8	; 0x2ca8 <UnityAssertEqualNumber>
		TEST_ASSERT_EQUAL(0, request.val);
     5d8:	2b 81       	ldd	r18, Y+3	; 0x03
     5da:	3c 81       	ldd	r19, Y+4	; 0x04
     5dc:	40 e0       	ldi	r20, 0x00	; 0
     5de:	50 e0       	ldi	r21, 0x00	; 0
     5e0:	60 e0       	ldi	r22, 0x00	; 0
     5e2:	70 e0       	ldi	r23, 0x00	; 0
     5e4:	80 e0       	ldi	r24, 0x00	; 0
     5e6:	90 e0       	ldi	r25, 0x00	; 0
     5e8:	ed e4       	ldi	r30, 0x4D	; 77
     5ea:	ee 2e       	mov	r14, r30
     5ec:	0e 94 54 16 	call	0x2ca8	; 0x2ca8 <UnityAssertEqualNumber>
}

void test_cmd0x01value0x02request(void)
{
	REQUEST_STRUCT request = {0,0};
	for(int i = 0; i < 10; i++)//multiple loops to check for data corruption
     5f0:	08 94       	sec
     5f2:	a1 1c       	adc	r10, r1
     5f4:	b1 1c       	adc	r11, r1
     5f6:	8a e0       	ldi	r24, 0x0A	; 10
     5f8:	a8 16       	cp	r10, r24
     5fa:	b1 04       	cpc	r11, r1
     5fc:	b1 f6       	brne	.-84     	; 0x5aa <test_cmd0x01value0x02request+0x30>
	{		
		parseRequest(&request, "cmd=0x01;val=0x02", strlen("cmd=0x01;val=0x02"));
		TEST_ASSERT_EQUAL(0, request.cmd);
		TEST_ASSERT_EQUAL(0, request.val);
	}	
	writeString_P("Test `test_cmd0x01value0x02request` passed\n");
     5fe:	88 ed       	ldi	r24, 0xD8	; 216
     600:	90 e0       	ldi	r25, 0x00	; 0
     602:	0e 94 95 0a 	call	0x152a	; 0x152a <writeNStringP>
}
     606:	0f 90       	pop	r0
     608:	0f 90       	pop	r0
     60a:	0f 90       	pop	r0
     60c:	0f 90       	pop	r0
     60e:	cf 91       	pop	r28
     610:	df 91       	pop	r29
     612:	1f 91       	pop	r17
     614:	0f 91       	pop	r16
     616:	ef 90       	pop	r14
     618:	cf 90       	pop	r12
     61a:	bf 90       	pop	r11
     61c:	af 90       	pop	r10
     61e:	9f 90       	pop	r9
     620:	8f 90       	pop	r8
     622:	08 95       	ret

00000624 <test_cmd0x01requestseparator>:
	}
	writeString_P("Test `test_value0x01` passed\n");
}

void test_cmd0x01requestseparator(void)
{
     624:	8f 92       	push	r8
     626:	9f 92       	push	r9
     628:	af 92       	push	r10
     62a:	bf 92       	push	r11
     62c:	cf 92       	push	r12
     62e:	ef 92       	push	r14
     630:	0f 93       	push	r16
     632:	1f 93       	push	r17
     634:	df 93       	push	r29
     636:	cf 93       	push	r28
     638:	00 d0       	rcall	.+0      	; 0x63a <test_cmd0x01requestseparator+0x16>
     63a:	00 d0       	rcall	.+0      	; 0x63c <test_cmd0x01requestseparator+0x18>
     63c:	cd b7       	in	r28, 0x3d	; 61
     63e:	de b7       	in	r29, 0x3e	; 62
	REQUEST_STRUCT request = {0,0};
     640:	1a 82       	std	Y+2, r1	; 0x02
     642:	19 82       	std	Y+1, r1	; 0x01
     644:	1c 82       	std	Y+4, r1	; 0x04
     646:	1b 82       	std	Y+3, r1	; 0x03
     648:	aa 24       	eor	r10, r10
     64a:	bb 24       	eor	r11, r11
	for(int i = 0; i < 10; i++)//multiple loops to check for data corruption
	{	
		parseRequest(&request, "cmd=0x01;", strlen("cmd=0x01;"));
     64c:	4e 01       	movw	r8, r28
     64e:	08 94       	sec
     650:	81 1c       	adc	r8, r1
     652:	91 1c       	adc	r9, r1
     654:	c4 01       	movw	r24, r8
     656:	61 e9       	ldi	r22, 0x91	; 145
     658:	70 e0       	ldi	r23, 0x00	; 0
     65a:	49 e0       	ldi	r20, 0x09	; 9
     65c:	50 e0       	ldi	r21, 0x00	; 0
     65e:	0e 94 17 05 	call	0xa2e	; 0xa2e <parseRequest>
		TEST_ASSERT_EQUAL(1, request.cmd);
     662:	29 81       	ldd	r18, Y+1	; 0x01
     664:	3a 81       	ldd	r19, Y+2	; 0x02
     666:	40 e0       	ldi	r20, 0x00	; 0
     668:	50 e0       	ldi	r21, 0x00	; 0
     66a:	61 e0       	ldi	r22, 0x01	; 1
     66c:	70 e0       	ldi	r23, 0x00	; 0
     66e:	80 e0       	ldi	r24, 0x00	; 0
     670:	90 e0       	ldi	r25, 0x00	; 0
     672:	00 e0       	ldi	r16, 0x00	; 0
     674:	10 e0       	ldi	r17, 0x00	; 0
     676:	e1 e4       	ldi	r30, 0x41	; 65
     678:	ee 2e       	mov	r14, r30
     67a:	b4 e9       	ldi	r27, 0x94	; 148
     67c:	cb 2e       	mov	r12, r27
     67e:	0e 94 54 16 	call	0x2ca8	; 0x2ca8 <UnityAssertEqualNumber>
}

void test_cmd0x01requestseparator(void)
{
	REQUEST_STRUCT request = {0,0};
	for(int i = 0; i < 10; i++)//multiple loops to check for data corruption
     682:	08 94       	sec
     684:	a1 1c       	adc	r10, r1
     686:	b1 1c       	adc	r11, r1
     688:	8a e0       	ldi	r24, 0x0A	; 10
     68a:	a8 16       	cp	r10, r24
     68c:	b1 04       	cpc	r11, r1
     68e:	11 f7       	brne	.-60     	; 0x654 <test_cmd0x01requestseparator+0x30>
	{	
		parseRequest(&request, "cmd=0x01;", strlen("cmd=0x01;"));
		TEST_ASSERT_EQUAL(1, request.cmd);
	}
	writeString_P("Test `test_cmd0x01requestseparator` passed\n");
     690:	84 e0       	ldi	r24, 0x04	; 4
     692:	91 e0       	ldi	r25, 0x01	; 1
     694:	0e 94 95 0a 	call	0x152a	; 0x152a <writeNStringP>
}
     698:	0f 90       	pop	r0
     69a:	0f 90       	pop	r0
     69c:	0f 90       	pop	r0
     69e:	0f 90       	pop	r0
     6a0:	cf 91       	pop	r28
     6a2:	df 91       	pop	r29
     6a4:	1f 91       	pop	r17
     6a6:	0f 91       	pop	r16
     6a8:	ef 90       	pop	r14
     6aa:	cf 90       	pop	r12
     6ac:	bf 90       	pop	r11
     6ae:	af 90       	pop	r10
     6b0:	9f 90       	pop	r9
     6b2:	8f 90       	pop	r8
     6b4:	08 95       	ret

000006b6 <test_cmd0x01request>:
	}
	writeString_P("Test `test_empty_requestparser` passed\n");
}

void test_cmd0x01request(void)
{
     6b6:	8f 92       	push	r8
     6b8:	9f 92       	push	r9
     6ba:	af 92       	push	r10
     6bc:	bf 92       	push	r11
     6be:	cf 92       	push	r12
     6c0:	ef 92       	push	r14
     6c2:	0f 93       	push	r16
     6c4:	1f 93       	push	r17
     6c6:	df 93       	push	r29
     6c8:	cf 93       	push	r28
     6ca:	00 d0       	rcall	.+0      	; 0x6cc <test_cmd0x01request+0x16>
     6cc:	00 d0       	rcall	.+0      	; 0x6ce <test_cmd0x01request+0x18>
     6ce:	cd b7       	in	r28, 0x3d	; 61
     6d0:	de b7       	in	r29, 0x3e	; 62
	REQUEST_STRUCT request = {0,0};
     6d2:	1a 82       	std	Y+2, r1	; 0x02
     6d4:	19 82       	std	Y+1, r1	; 0x01
     6d6:	1c 82       	std	Y+4, r1	; 0x04
     6d8:	1b 82       	std	Y+3, r1	; 0x03
     6da:	aa 24       	eor	r10, r10
     6dc:	bb 24       	eor	r11, r11
	for(int i = 0; i < 10; i++)//multiple loops to check for data corruption
	{
		
		parseRequest(&request, "cmd=0x01", strlen("cmd=0x01"));
     6de:	4e 01       	movw	r8, r28
     6e0:	08 94       	sec
     6e2:	81 1c       	adc	r8, r1
     6e4:	91 1c       	adc	r9, r1
     6e6:	c4 01       	movw	r24, r8
     6e8:	6b e9       	ldi	r22, 0x9B	; 155
     6ea:	70 e0       	ldi	r23, 0x00	; 0
     6ec:	48 e0       	ldi	r20, 0x08	; 8
     6ee:	50 e0       	ldi	r21, 0x00	; 0
     6f0:	0e 94 17 05 	call	0xa2e	; 0xa2e <parseRequest>
		TEST_ASSERT_EQUAL(1, request.cmd);
     6f4:	29 81       	ldd	r18, Y+1	; 0x01
     6f6:	3a 81       	ldd	r19, Y+2	; 0x02
     6f8:	40 e0       	ldi	r20, 0x00	; 0
     6fa:	50 e0       	ldi	r21, 0x00	; 0
     6fc:	61 e0       	ldi	r22, 0x01	; 1
     6fe:	70 e0       	ldi	r23, 0x00	; 0
     700:	80 e0       	ldi	r24, 0x00	; 0
     702:	90 e0       	ldi	r25, 0x00	; 0
     704:	00 e0       	ldi	r16, 0x00	; 0
     706:	10 e0       	ldi	r17, 0x00	; 0
     708:	ac e2       	ldi	r26, 0x2C	; 44
     70a:	ea 2e       	mov	r14, r26
     70c:	f4 e9       	ldi	r31, 0x94	; 148
     70e:	cf 2e       	mov	r12, r31
     710:	0e 94 54 16 	call	0x2ca8	; 0x2ca8 <UnityAssertEqualNumber>
}

void test_cmd0x01request(void)
{
	REQUEST_STRUCT request = {0,0};
	for(int i = 0; i < 10; i++)//multiple loops to check for data corruption
     714:	08 94       	sec
     716:	a1 1c       	adc	r10, r1
     718:	b1 1c       	adc	r11, r1
     71a:	8a e0       	ldi	r24, 0x0A	; 10
     71c:	a8 16       	cp	r10, r24
     71e:	b1 04       	cpc	r11, r1
     720:	11 f7       	brne	.-60     	; 0x6e6 <test_cmd0x01request+0x30>
	{
		
		parseRequest(&request, "cmd=0x01", strlen("cmd=0x01"));
		TEST_ASSERT_EQUAL(1, request.cmd);
	}
	writeString_P("Test `test_cmd0x01request` passed\n");
     722:	8e e4       	ldi	r24, 0x4E	; 78
     724:	91 e0       	ldi	r25, 0x01	; 1
     726:	0e 94 95 0a 	call	0x152a	; 0x152a <writeNStringP>
}
     72a:	0f 90       	pop	r0
     72c:	0f 90       	pop	r0
     72e:	0f 90       	pop	r0
     730:	0f 90       	pop	r0
     732:	cf 91       	pop	r28
     734:	df 91       	pop	r29
     736:	1f 91       	pop	r17
     738:	0f 91       	pop	r16
     73a:	ef 90       	pop	r14
     73c:	cf 90       	pop	r12
     73e:	bf 90       	pop	r11
     740:	af 90       	pop	r10
     742:	9f 90       	pop	r9
     744:	8f 90       	pop	r8
     746:	08 95       	ret

00000748 <test_empty_requestparser>:
{
	writeString_P("...cleaned up after test.\n");
}

void test_empty_requestparser(void)
{
     748:	cf 92       	push	r12
     74a:	ef 92       	push	r14
     74c:	0f 93       	push	r16
     74e:	1f 93       	push	r17
     750:	cf 93       	push	r28
     752:	df 93       	push	r29
     754:	c0 e0       	ldi	r28, 0x00	; 0
     756:	d0 e0       	ldi	r29, 0x00	; 0
	for(int i = 0; i < 10; i++)//multiple loops to check for data corruption
	{
		REQUEST_STRUCT request = {0,0};
		TEST_ASSERT_EQUAL(0, request.cmd);
     758:	60 e0       	ldi	r22, 0x00	; 0
     75a:	70 e0       	ldi	r23, 0x00	; 0
     75c:	80 e0       	ldi	r24, 0x00	; 0
     75e:	90 e0       	ldi	r25, 0x00	; 0
     760:	20 e0       	ldi	r18, 0x00	; 0
     762:	30 e0       	ldi	r19, 0x00	; 0
     764:	40 e0       	ldi	r20, 0x00	; 0
     766:	50 e0       	ldi	r21, 0x00	; 0
     768:	00 e0       	ldi	r16, 0x00	; 0
     76a:	10 e0       	ldi	r17, 0x00	; 0
     76c:	ff e1       	ldi	r31, 0x1F	; 31
     76e:	ef 2e       	mov	r14, r31
     770:	e4 e9       	ldi	r30, 0x94	; 148
     772:	ce 2e       	mov	r12, r30
     774:	0e 94 54 16 	call	0x2ca8	; 0x2ca8 <UnityAssertEqualNumber>
		TEST_ASSERT_EQUAL(0, request.val);
     778:	60 e0       	ldi	r22, 0x00	; 0
     77a:	70 e0       	ldi	r23, 0x00	; 0
     77c:	80 e0       	ldi	r24, 0x00	; 0
     77e:	90 e0       	ldi	r25, 0x00	; 0
     780:	20 e0       	ldi	r18, 0x00	; 0
     782:	30 e0       	ldi	r19, 0x00	; 0
     784:	40 e0       	ldi	r20, 0x00	; 0
     786:	50 e0       	ldi	r21, 0x00	; 0
     788:	b0 e2       	ldi	r27, 0x20	; 32
     78a:	eb 2e       	mov	r14, r27
     78c:	0e 94 54 16 	call	0x2ca8	; 0x2ca8 <UnityAssertEqualNumber>
	writeString_P("...cleaned up after test.\n");
}

void test_empty_requestparser(void)
{
	for(int i = 0; i < 10; i++)//multiple loops to check for data corruption
     790:	21 96       	adiw	r28, 0x01	; 1
     792:	ca 30       	cpi	r28, 0x0A	; 10
     794:	d1 05       	cpc	r29, r1
     796:	01 f7       	brne	.-64     	; 0x758 <test_empty_requestparser+0x10>
	{
		REQUEST_STRUCT request = {0,0};
		TEST_ASSERT_EQUAL(0, request.cmd);
		TEST_ASSERT_EQUAL(0, request.val);
	}
	writeString_P("Test `test_empty_requestparser` passed\n");
     798:	81 e7       	ldi	r24, 0x71	; 113
     79a:	91 e0       	ldi	r25, 0x01	; 1
     79c:	0e 94 95 0a 	call	0x152a	; 0x152a <writeNStringP>
}
     7a0:	df 91       	pop	r29
     7a2:	cf 91       	pop	r28
     7a4:	1f 91       	pop	r17
     7a6:	0f 91       	pop	r16
     7a8:	ef 90       	pop	r14
     7aa:	cf 90       	pop	r12
     7ac:	08 95       	ret

000007ae <test_value0x01>:
		TEST_ASSERT_EQUAL(1, request.cmd);
	}
	writeString_P("Test `test_cmd0x01request` passed\n");
}
void test_value0x01(void)
{
     7ae:	8f 92       	push	r8
     7b0:	9f 92       	push	r9
     7b2:	af 92       	push	r10
     7b4:	bf 92       	push	r11
     7b6:	cf 92       	push	r12
     7b8:	ef 92       	push	r14
     7ba:	0f 93       	push	r16
     7bc:	1f 93       	push	r17
     7be:	df 93       	push	r29
     7c0:	cf 93       	push	r28
     7c2:	00 d0       	rcall	.+0      	; 0x7c4 <test_value0x01+0x16>
     7c4:	00 d0       	rcall	.+0      	; 0x7c6 <test_value0x01+0x18>
     7c6:	cd b7       	in	r28, 0x3d	; 61
     7c8:	de b7       	in	r29, 0x3e	; 62
	REQUEST_STRUCT request = {0,0};
     7ca:	1a 82       	std	Y+2, r1	; 0x02
     7cc:	19 82       	std	Y+1, r1	; 0x01
     7ce:	1c 82       	std	Y+4, r1	; 0x04
     7d0:	1b 82       	std	Y+3, r1	; 0x03
     7d2:	aa 24       	eor	r10, r10
     7d4:	bb 24       	eor	r11, r11
	for(int i = 0; i < 10; i++)//multiple loops to check for data corruption
	{		
		FilterRequestData(&request, "val=0x02", 3, 0, strlen("val=0x02"));
     7d6:	4e 01       	movw	r8, r28
     7d8:	08 94       	sec
     7da:	81 1c       	adc	r8, r1
     7dc:	91 1c       	adc	r9, r1
     7de:	c4 01       	movw	r24, r8
     7e0:	64 ea       	ldi	r22, 0xA4	; 164
     7e2:	70 e0       	ldi	r23, 0x00	; 0
     7e4:	43 e0       	ldi	r20, 0x03	; 3
     7e6:	50 e0       	ldi	r21, 0x00	; 0
     7e8:	20 e0       	ldi	r18, 0x00	; 0
     7ea:	30 e0       	ldi	r19, 0x00	; 0
     7ec:	08 e0       	ldi	r16, 0x08	; 8
     7ee:	10 e0       	ldi	r17, 0x00	; 0
     7f0:	0e 94 29 04 	call	0x852	; 0x852 <FilterRequestData>
		TEST_ASSERT_EQUAL(2, request.val);
     7f4:	2b 81       	ldd	r18, Y+3	; 0x03
     7f6:	3c 81       	ldd	r19, Y+4	; 0x04
     7f8:	40 e0       	ldi	r20, 0x00	; 0
     7fa:	50 e0       	ldi	r21, 0x00	; 0
     7fc:	62 e0       	ldi	r22, 0x02	; 2
     7fe:	70 e0       	ldi	r23, 0x00	; 0
     800:	80 e0       	ldi	r24, 0x00	; 0
     802:	90 e0       	ldi	r25, 0x00	; 0
     804:	00 e0       	ldi	r16, 0x00	; 0
     806:	10 e0       	ldi	r17, 0x00	; 0
     808:	b6 e3       	ldi	r27, 0x36	; 54
     80a:	eb 2e       	mov	r14, r27
     80c:	a4 e9       	ldi	r26, 0x94	; 148
     80e:	ca 2e       	mov	r12, r26
     810:	0e 94 54 16 	call	0x2ca8	; 0x2ca8 <UnityAssertEqualNumber>
	writeString_P("Test `test_cmd0x01request` passed\n");
}
void test_value0x01(void)
{
	REQUEST_STRUCT request = {0,0};
	for(int i = 0; i < 10; i++)//multiple loops to check for data corruption
     814:	08 94       	sec
     816:	a1 1c       	adc	r10, r1
     818:	b1 1c       	adc	r11, r1
     81a:	8a e0       	ldi	r24, 0x0A	; 10
     81c:	a8 16       	cp	r10, r24
     81e:	b1 04       	cpc	r11, r1
     820:	f1 f6       	brne	.-68     	; 0x7de <test_value0x01+0x30>
	{		
		FilterRequestData(&request, "val=0x02", 3, 0, strlen("val=0x02"));
		TEST_ASSERT_EQUAL(2, request.val);
	}
	writeString_P("Test `test_value0x01` passed\n");
     822:	80 e3       	ldi	r24, 0x30	; 48
     824:	91 e0       	ldi	r25, 0x01	; 1
     826:	0e 94 95 0a 	call	0x152a	; 0x152a <writeNStringP>
}
     82a:	0f 90       	pop	r0
     82c:	0f 90       	pop	r0
     82e:	0f 90       	pop	r0
     830:	0f 90       	pop	r0
     832:	cf 91       	pop	r28
     834:	df 91       	pop	r29
     836:	1f 91       	pop	r17
     838:	0f 91       	pop	r16
     83a:	ef 90       	pop	r14
     83c:	cf 90       	pop	r12
     83e:	bf 90       	pop	r11
     840:	af 90       	pop	r10
     842:	9f 90       	pop	r9
     844:	8f 90       	pop	r8
     846:	08 95       	ret

00000848 <rp6_output_char_for_unity>:
/* Check out define in makfile: 
 *	CDEFS = -DUNITY_INT_WIDTH=16 -DUNITY_OUTPUT_CHAR=rp6_output_char_for_unity	
 */
int rp6_output_char_for_unity(int character)
{
	writeChar(character);
     848:	0e 94 87 0a 	call	0x150e	; 0x150e <writeChar>
	return 0;
}
     84c:	80 e0       	ldi	r24, 0x00	; 0
     84e:	90 e0       	ldi	r25, 0x00	; 0
     850:	08 95       	ret

00000852 <FilterRequestData>:
   }
  
}

extern void FilterRequestData(REQUEST_STRUCT* request, char request_buffer[], size_t separatorindex, size_t startindex, size_t endindex)
{
     852:	2f 92       	push	r2
     854:	3f 92       	push	r3
     856:	4f 92       	push	r4
     858:	5f 92       	push	r5
     85a:	6f 92       	push	r6
     85c:	7f 92       	push	r7
     85e:	8f 92       	push	r8
     860:	9f 92       	push	r9
     862:	af 92       	push	r10
     864:	bf 92       	push	r11
     866:	cf 92       	push	r12
     868:	df 92       	push	r13
     86a:	ef 92       	push	r14
     86c:	ff 92       	push	r15
     86e:	0f 93       	push	r16
     870:	1f 93       	push	r17
     872:	df 93       	push	r29
     874:	cf 93       	push	r28
     876:	cd b7       	in	r28, 0x3d	; 61
     878:	de b7       	in	r29, 0x3e	; 62
     87a:	4c 01       	movw	r8, r24
     87c:	5b 01       	movw	r10, r22
				//
				break;
			}
		}
	}
     87e:	4d b6       	in	r4, 0x3d	; 61
     880:	5e b6       	in	r5, 0x3e	; 62
  
}

extern void FilterRequestData(REQUEST_STRUCT* request, char request_buffer[], size_t separatorindex, size_t startindex, size_t endindex)
{
	if((separatorindex - startindex) > 0 && (endindex - separatorindex) > 2 && request != NULL)
     882:	42 17       	cp	r20, r18
     884:	53 07       	cpc	r21, r19
     886:	09 f4       	brne	.+2      	; 0x88a <__stack+0x2b>
     888:	ba c0       	rjmp	.+372    	; 0x9fe <__stack+0x19f>
     88a:	04 1b       	sub	r16, r20
     88c:	15 0b       	sbc	r17, r21
     88e:	03 30       	cpi	r16, 0x03	; 3
     890:	11 05       	cpc	r17, r1
     892:	08 f4       	brcc	.+2      	; 0x896 <__stack+0x37>
     894:	b4 c0       	rjmp	.+360    	; 0x9fe <__stack+0x19f>
     896:	00 97       	sbiw	r24, 0x00	; 0
     898:	09 f4       	brne	.+2      	; 0x89c <__stack+0x3d>
     89a:	b1 c0       	rjmp	.+354    	; 0x9fe <__stack+0x19f>
     89c:	3d b6       	in	r3, 0x3d	; 61
     89e:	2e b6       	in	r2, 0x3e	; 62
	{			
		char cmdbuffer[(separatorindex - startindex)+1];
     8a0:	7a 01       	movw	r14, r20
     8a2:	08 94       	sec
     8a4:	e1 1c       	adc	r14, r1
     8a6:	f1 1c       	adc	r15, r1
     8a8:	a7 01       	movw	r20, r14
     8aa:	42 1b       	sub	r20, r18
     8ac:	53 0b       	sbc	r21, r19
     8ae:	8d b7       	in	r24, 0x3d	; 61
     8b0:	9e b7       	in	r25, 0x3e	; 62
     8b2:	84 1b       	sub	r24, r20
     8b4:	95 0b       	sbc	r25, r21
     8b6:	0f b6       	in	r0, 0x3f	; 63
     8b8:	f8 94       	cli
     8ba:	9e bf       	out	0x3e, r25	; 62
     8bc:	0f be       	out	0x3f, r0	; 63
     8be:	8d bf       	out	0x3d, r24	; 61
     8c0:	cd b6       	in	r12, 0x3d	; 61
     8c2:	de b6       	in	r13, 0x3e	; 62
     8c4:	08 94       	sec
     8c6:	c1 1c       	adc	r12, r1
     8c8:	d1 1c       	adc	r13, r1
		strncpy(cmdbuffer, request_buffer+startindex, ((separatorindex - startindex)+1));
     8ca:	26 0f       	add	r18, r22
     8cc:	37 1f       	adc	r19, r23
     8ce:	c6 01       	movw	r24, r12
     8d0:	b9 01       	movw	r22, r18
     8d2:	0e 94 ab 1e 	call	0x3d56	; 0x3d56 <strncpy>
		static char* proper_keys[2] = {"cmd", "val"};
		int index = -1;
		
		for(uint8_t i = 0; i < 2;i++)
		{
			if(strncmp(cmdbuffer, proper_keys[i], strlen(proper_keys[i])) == 0)
     8d6:	6d ea       	ldi	r22, 0xAD	; 173
     8d8:	70 e0       	ldi	r23, 0x00	; 0
     8da:	db 01       	movw	r26, r22
     8dc:	0d 90       	ld	r0, X+
     8de:	00 20       	and	r0, r0
     8e0:	e9 f7       	brne	.-6      	; 0x8dc <__stack+0x7d>
     8e2:	11 97       	sbiw	r26, 0x01	; 1
     8e4:	a6 1b       	sub	r26, r22
     8e6:	b7 0b       	sbc	r27, r23
     8e8:	c6 01       	movw	r24, r12
     8ea:	ad 01       	movw	r20, r26
     8ec:	0e 94 9d 1e 	call	0x3d3a	; 0x3d3a <strncmp>
     8f0:	00 97       	sbiw	r24, 0x00	; 0
     8f2:	09 f4       	brne	.+2      	; 0x8f6 <__stack+0x97>
     8f4:	7f c0       	rjmp	.+254    	; 0x9f4 <__stack+0x195>
     8f6:	61 eb       	ldi	r22, 0xB1	; 177
     8f8:	70 e0       	ldi	r23, 0x00	; 0
     8fa:	db 01       	movw	r26, r22
     8fc:	0d 90       	ld	r0, X+
     8fe:	00 20       	and	r0, r0
     900:	e9 f7       	brne	.-6      	; 0x8fc <__stack+0x9d>
     902:	11 97       	sbiw	r26, 0x01	; 1
     904:	a6 1b       	sub	r26, r22
     906:	b7 0b       	sbc	r27, r23
     908:	c6 01       	movw	r24, r12
     90a:	ad 01       	movw	r20, r26
     90c:	0e 94 9d 1e 	call	0x3d3a	; 0x3d3a <strncmp>
     910:	00 97       	sbiw	r24, 0x00	; 0
     912:	09 f0       	breq	.+2      	; 0x916 <__stack+0xb7>
     914:	66 c0       	rjmp	.+204    	; 0x9e2 <__stack+0x183>
     916:	7d b6       	in	r7, 0x3d	; 61
     918:	6e b6       	in	r6, 0x3e	; 62
				break;
			}
			case 1: //VAL
			{
				//				
				char filtervalue [(endindex-separatorindex)+1];
     91a:	a8 01       	movw	r20, r16
     91c:	4f 5f       	subi	r20, 0xFF	; 255
     91e:	5f 4f       	sbci	r21, 0xFF	; 255
     920:	ed b7       	in	r30, 0x3d	; 61
     922:	fe b7       	in	r31, 0x3e	; 62
     924:	e4 1b       	sub	r30, r20
     926:	f5 0b       	sbc	r31, r21
     928:	0f b6       	in	r0, 0x3f	; 63
     92a:	f8 94       	cli
     92c:	fe bf       	out	0x3e, r31	; 62
     92e:	0f be       	out	0x3f, r0	; 63
     930:	ed bf       	out	0x3d, r30	; 61
     932:	cd b6       	in	r12, 0x3d	; 61
     934:	de b6       	in	r13, 0x3e	; 62
     936:	08 94       	sec
     938:	c1 1c       	adc	r12, r1
     93a:	d1 1c       	adc	r13, r1
				strncpy(filtervalue, request_buffer+(separatorindex+1), (endindex-separatorindex+1));
     93c:	ea 0c       	add	r14, r10
     93e:	fb 1c       	adc	r15, r11
     940:	c6 01       	movw	r24, r12
     942:	b7 01       	movw	r22, r14
     944:	0e 94 ab 1e 	call	0x3d56	; 0x3d56 <strncpy>
				
				if(strlen(filtervalue) > 0)
     948:	f6 01       	movw	r30, r12
     94a:	80 81       	ld	r24, Z
     94c:	88 23       	and	r24, r24
     94e:	09 f4       	brne	.+2      	; 0x952 <__stack+0xf3>
     950:	40 c0       	rjmp	.+128    	; 0x9d2 <__stack+0x173>
     952:	35 c0       	rjmp	.+106    	; 0x9be <__stack+0x15f>
     954:	dd b6       	in	r13, 0x3d	; 61
     956:	ce b6       	in	r12, 0x3e	; 62
				uint16_t length = (endindex-separatorindex+1);
				
				if(length > 0)
				{
				//				
					char filtervalue [length];
     958:	8d b7       	in	r24, 0x3d	; 61
     95a:	9e b7       	in	r25, 0x3e	; 62
     95c:	84 1b       	sub	r24, r20
     95e:	95 0b       	sbc	r25, r21
     960:	0f b6       	in	r0, 0x3f	; 63
     962:	f8 94       	cli
     964:	9e bf       	out	0x3e, r25	; 62
     966:	0f be       	out	0x3f, r0	; 63
     968:	8d bf       	out	0x3d, r24	; 61
     96a:	0d b7       	in	r16, 0x3d	; 61
     96c:	1e b7       	in	r17, 0x3e	; 62
     96e:	0f 5f       	subi	r16, 0xFF	; 255
     970:	1f 4f       	sbci	r17, 0xFF	; 255
					strncpy(filtervalue, request_buffer+(separatorindex+1), length);
     972:	ea 0c       	add	r14, r10
     974:	fb 1c       	adc	r15, r11
     976:	c8 01       	movw	r24, r16
     978:	b7 01       	movw	r22, r14
     97a:	0e 94 ab 1e 	call	0x3d56	; 0x3d56 <strncpy>
				
						uint16_t value = strtol(filtervalue, NULL, 0);
     97e:	c8 01       	movw	r24, r16
     980:	60 e0       	ldi	r22, 0x00	; 0
     982:	70 e0       	ldi	r23, 0x00	; 0
     984:	40 e0       	ldi	r20, 0x00	; 0
     986:	50 e0       	ldi	r21, 0x00	; 0
     988:	0e 94 0f 1d 	call	0x3a1e	; 0x3a1e <strtol>
     98c:	7b 01       	movw	r14, r22
     98e:	8c 01       	movw	r16, r24
						
						writeString("{cmd=0x");
     990:	85 eb       	ldi	r24, 0xB5	; 181
     992:	90 e0       	ldi	r25, 0x00	; 0
     994:	0e 94 8b 0a 	call	0x1516	; 0x1516 <writeString>
						writeInteger(value, HEX);
     998:	c7 01       	movw	r24, r14
     99a:	60 e1       	ldi	r22, 0x10	; 16
     99c:	0e 94 3d 0b 	call	0x167a	; 0x167a <writeInteger>
						writeChar('}');
     9a0:	8d e7       	ldi	r24, 0x7D	; 125
     9a2:	0e 94 87 0a 	call	0x150e	; 0x150e <writeChar>
						
						(*request).cmd = value;
     9a6:	f4 01       	movw	r30, r8
     9a8:	f1 82       	std	Z+1, r15	; 0x01
     9aa:	e0 82       	st	Z, r14
     9ac:	2d 2d       	mov	r18, r13
     9ae:	3c 2d       	mov	r19, r12
     9b0:	c9 01       	movw	r24, r18
     9b2:	0f b6       	in	r0, 0x3f	; 63
     9b4:	f8 94       	cli
     9b6:	9e bf       	out	0x3e, r25	; 62
     9b8:	0f be       	out	0x3f, r0	; 63
     9ba:	8d bf       	out	0x3d, r24	; 61
     9bc:	12 c0       	rjmp	.+36     	; 0x9e2 <__stack+0x183>
				char filtervalue [(endindex-separatorindex)+1];
				strncpy(filtervalue, request_buffer+(separatorindex+1), (endindex-separatorindex+1));
				
				if(strlen(filtervalue) > 0)
				{
					uint16_t value = strtol(filtervalue, NULL, 0);
     9be:	c6 01       	movw	r24, r12
     9c0:	60 e0       	ldi	r22, 0x00	; 0
     9c2:	70 e0       	ldi	r23, 0x00	; 0
     9c4:	40 e0       	ldi	r20, 0x00	; 0
     9c6:	50 e0       	ldi	r21, 0x00	; 0
     9c8:	0e 94 0f 1d 	call	0x3a1e	; 0x3a1e <strtol>
					(*request).val = value;
     9cc:	f4 01       	movw	r30, r8
     9ce:	73 83       	std	Z+3, r23	; 0x03
     9d0:	62 83       	std	Z+2, r22	; 0x02
     9d2:	87 2d       	mov	r24, r7
     9d4:	96 2d       	mov	r25, r6
     9d6:	9c 01       	movw	r18, r24
     9d8:	0f b6       	in	r0, 0x3f	; 63
     9da:	f8 94       	cli
     9dc:	3e bf       	out	0x3e, r19	; 62
     9de:	0f be       	out	0x3f, r0	; 63
     9e0:	2d bf       	out	0x3d, r18	; 61
     9e2:	83 2d       	mov	r24, r3
     9e4:	92 2d       	mov	r25, r2
     9e6:	9c 01       	movw	r18, r24
     9e8:	0f b6       	in	r0, 0x3f	; 63
     9ea:	f8 94       	cli
     9ec:	3e bf       	out	0x3e, r19	; 62
     9ee:	0f be       	out	0x3f, r0	; 63
     9f0:	2d bf       	out	0x3d, r18	; 61
     9f2:	05 c0       	rjmp	.+10     	; 0x9fe <__stack+0x19f>
		
		switch(index)
		{
			case 0://CMD
			{
				uint16_t length = (endindex-separatorindex+1);
     9f4:	a8 01       	movw	r20, r16
     9f6:	4f 5f       	subi	r20, 0xFF	; 255
     9f8:	5f 4f       	sbci	r21, 0xFF	; 255
				
				if(length > 0)
     9fa:	99 f3       	breq	.-26     	; 0x9e2 <__stack+0x183>
     9fc:	ab cf       	rjmp	.-170    	; 0x954 <__stack+0xf5>
				//
				break;
			}
		}
	}
     9fe:	0f b6       	in	r0, 0x3f	; 63
     a00:	f8 94       	cli
     a02:	5e be       	out	0x3e, r5	; 62
     a04:	0f be       	out	0x3f, r0	; 63
     a06:	4d be       	out	0x3d, r4	; 61
     a08:	cf 91       	pop	r28
     a0a:	df 91       	pop	r29
     a0c:	1f 91       	pop	r17
     a0e:	0f 91       	pop	r16
     a10:	ff 90       	pop	r15
     a12:	ef 90       	pop	r14
     a14:	df 90       	pop	r13
     a16:	cf 90       	pop	r12
     a18:	bf 90       	pop	r11
     a1a:	af 90       	pop	r10
     a1c:	9f 90       	pop	r9
     a1e:	8f 90       	pop	r8
     a20:	7f 90       	pop	r7
     a22:	6f 90       	pop	r6
     a24:	5f 90       	pop	r5
     a26:	4f 90       	pop	r4
     a28:	3f 90       	pop	r3
     a2a:	2f 90       	pop	r2
     a2c:	08 95       	ret

00000a2e <parseRequest>:
///<summary>
/// EXPECTED BUFFER DATA FORMAT:
///				CMD=0x01;CMD = 0x01
///<summary>
extern void parseRequest(REQUEST_STRUCT* rstruct, char request_buffer[], size_t buffer_size)
{	
     a2e:	2f 92       	push	r2
     a30:	3f 92       	push	r3
     a32:	4f 92       	push	r4
     a34:	5f 92       	push	r5
     a36:	6f 92       	push	r6
     a38:	7f 92       	push	r7
     a3a:	8f 92       	push	r8
     a3c:	9f 92       	push	r9
     a3e:	af 92       	push	r10
     a40:	bf 92       	push	r11
     a42:	cf 92       	push	r12
     a44:	df 92       	push	r13
     a46:	ef 92       	push	r14
     a48:	ff 92       	push	r15
     a4a:	0f 93       	push	r16
     a4c:	1f 93       	push	r17
     a4e:	df 93       	push	r29
     a50:	cf 93       	push	r28
     a52:	cd b7       	in	r28, 0x3d	; 61
     a54:	de b7       	in	r29, 0x3e	; 62
     a56:	c0 5d       	subi	r28, 0xD0	; 208
     a58:	d0 40       	sbci	r29, 0x00	; 0
     a5a:	0f b6       	in	r0, 0x3f	; 63
     a5c:	f8 94       	cli
     a5e:	de bf       	out	0x3e, r29	; 62
     a60:	0f be       	out	0x3f, r0	; 63
     a62:	cd bf       	out	0x3d, r28	; 61
     a64:	c7 53       	subi	r28, 0x37	; 55
     a66:	df 4f       	sbci	r29, 0xFF	; 255
     a68:	99 83       	std	Y+1, r25	; 0x01
     a6a:	88 83       	st	Y, r24
     a6c:	c9 5c       	subi	r28, 0xC9	; 201
     a6e:	d0 40       	sbci	r29, 0x00	; 0
     a70:	c5 53       	subi	r28, 0x35	; 53
     a72:	df 4f       	sbci	r29, 0xFF	; 255
     a74:	79 83       	std	Y+1, r23	; 0x01
     a76:	68 83       	st	Y, r22
     a78:	cb 5c       	subi	r28, 0xCB	; 203
     a7a:	d0 40       	sbci	r29, 0x00	; 0
	(*rstruct).cmd = 0;
     a7c:	fc 01       	movw	r30, r24
     a7e:	11 82       	std	Z+1, r1	; 0x01
     a80:	10 82       	st	Z, r1
	(*rstruct).val = 0;
     a82:	13 82       	std	Z+3, r1	; 0x03
     a84:	12 82       	std	Z+2, r1	; 0x02
     a86:	66 24       	eor	r6, r6
     a88:	77 24       	eor	r7, r7
     a8a:	43 01       	movw	r8, r6
     a8c:	22 24       	eor	r2, r2
     a8e:	33 24       	eor	r3, r3
     a90:	21 01       	movw	r4, r2
     a92:	80 e0       	ldi	r24, 0x00	; 0
     a94:	aa 24       	eor	r10, r10
     a96:	bb 24       	eor	r11, r11
     a98:	65 01       	movw	r12, r10
   uint32_t startpos = 0;
   uint32_t sepindex = 0;
   bool foundmiddle=false;

   uint32_t  i = 0;
   for(; i < buffer_size;i++)
     a9a:	8a 01       	movw	r16, r20
     a9c:	20 e0       	ldi	r18, 0x00	; 0
     a9e:	30 e0       	ldi	r19, 0x00	; 0
     aa0:	c3 53       	subi	r28, 0x33	; 51
     aa2:	df 4f       	sbci	r29, 0xFF	; 255
     aa4:	08 83       	st	Y, r16
     aa6:	19 83       	std	Y+1, r17	; 0x01
     aa8:	2a 83       	std	Y+2, r18	; 0x02
     aaa:	3b 83       	std	Y+3, r19	; 0x03
     aac:	cd 5c       	subi	r28, 0xCD	; 205
     aae:	d0 40       	sbci	r29, 0x00	; 0
     ab0:	63 c0       	rjmp	.+198    	; 0xb78 <parseRequest+0x14a>
///<summary>
/// EXPECTED BUFFER DATA FORMAT:
///				CMD=0x01;CMD = 0x01
///<summary>
extern void parseRequest(REQUEST_STRUCT* rstruct, char request_buffer[], size_t buffer_size)
{	
     ab2:	75 01       	movw	r14, r10
   bool foundmiddle=false;

   uint32_t  i = 0;
   for(; i < buffer_size;i++)
   {
		if(request_buffer[i]==';')
     ab4:	c5 53       	subi	r28, 0x35	; 53
     ab6:	df 4f       	sbci	r29, 0xFF	; 255
     ab8:	e8 81       	ld	r30, Y
     aba:	f9 81       	ldd	r31, Y+1	; 0x01
     abc:	cb 5c       	subi	r28, 0xCB	; 203
     abe:	d0 40       	sbci	r29, 0x00	; 0
     ac0:	ea 0d       	add	r30, r10
     ac2:	fb 1d       	adc	r31, r11
     ac4:	e0 81       	ld	r30, Z
     ac6:	eb 33       	cpi	r30, 0x3B	; 59
     ac8:	09 f0       	breq	.+2      	; 0xacc <parseRequest+0x9e>
     aca:	4c c0       	rjmp	.+152    	; 0xb64 <parseRequest+0x136>
		{
			if(i>startpos&&foundmiddle == true && i != sepindex)
     acc:	6a 14       	cp	r6, r10
     ace:	7b 04       	cpc	r7, r11
     ad0:	8c 04       	cpc	r8, r12
     ad2:	9d 04       	cpc	r9, r13
     ad4:	08 f0       	brcs	.+2      	; 0xad8 <parseRequest+0xaa>
     ad6:	96 c0       	rjmp	.+300    	; 0xc04 <parseRequest+0x1d6>
     ad8:	88 23       	and	r24, r24
     ada:	09 f4       	brne	.+2      	; 0xade <parseRequest+0xb0>
     adc:	93 c0       	rjmp	.+294    	; 0xc04 <parseRequest+0x1d6>
     ade:	a2 14       	cp	r10, r2
     ae0:	b3 04       	cpc	r11, r3
     ae2:	c4 04       	cpc	r12, r4
     ae4:	d5 04       	cpc	r13, r5
     ae6:	09 f4       	brne	.+2      	; 0xaea <parseRequest+0xbc>
     ae8:	5a c0       	rjmp	.+180    	; 0xb9e <parseRequest+0x170>
			{
				memcpy(string_token,request_buffer+startpos,i-startpos); 
     aea:	f5 01       	movw	r30, r10
     aec:	e6 19       	sub	r30, r6
     aee:	f7 09       	sbc	r31, r7
     af0:	c5 53       	subi	r28, 0x35	; 53
     af2:	df 4f       	sbci	r29, 0xFF	; 255
     af4:	28 81       	ld	r18, Y
     af6:	39 81       	ldd	r19, Y+1	; 0x01
     af8:	cb 5c       	subi	r28, 0xCB	; 203
     afa:	d0 40       	sbci	r29, 0x00	; 0
     afc:	26 0d       	add	r18, r6
     afe:	37 1d       	adc	r19, r7
     b00:	ce 01       	movw	r24, r28
     b02:	01 96       	adiw	r24, 0x01	; 1
     b04:	b9 01       	movw	r22, r18
     b06:	af 01       	movw	r20, r30
     b08:	0e 94 94 1e 	call	0x3d28	; 0x3d28 <memcpy>
				string_token[i-startpos] = '\0';
     b0c:	d6 01       	movw	r26, r12
     b0e:	c5 01       	movw	r24, r10
     b10:	86 19       	sub	r24, r6
     b12:	97 09       	sbc	r25, r7
     b14:	a8 09       	sbc	r26, r8
     b16:	b9 09       	sbc	r27, r9
     b18:	e1 e0       	ldi	r30, 0x01	; 1
     b1a:	f0 e0       	ldi	r31, 0x00	; 0
     b1c:	ec 0f       	add	r30, r28
     b1e:	fd 1f       	adc	r31, r29
     b20:	e8 0f       	add	r30, r24
     b22:	f9 1f       	adc	r31, r25
     b24:	10 82       	st	Z, r1
			
				FilterRequestData(rstruct,string_token,sepindex-startpos,0,(i-1));
     b26:	a1 01       	movw	r20, r2
     b28:	46 19       	sub	r20, r6
     b2a:	57 09       	sbc	r21, r7
     b2c:	08 94       	sec
     b2e:	e1 08       	sbc	r14, r1
     b30:	f1 08       	sbc	r15, r1
     b32:	c7 53       	subi	r28, 0x37	; 55
     b34:	df 4f       	sbci	r29, 0xFF	; 255
     b36:	88 81       	ld	r24, Y
     b38:	99 81       	ldd	r25, Y+1	; 0x01
     b3a:	c9 5c       	subi	r28, 0xC9	; 201
     b3c:	d0 40       	sbci	r29, 0x00	; 0
     b3e:	be 01       	movw	r22, r28
     b40:	6f 5f       	subi	r22, 0xFF	; 255
     b42:	7f 4f       	sbci	r23, 0xFF	; 255
     b44:	20 e0       	ldi	r18, 0x00	; 0
     b46:	30 e0       	ldi	r19, 0x00	; 0
     b48:	87 01       	movw	r16, r14
     b4a:	0e 94 29 04 	call	0x852	; 0x852 <FilterRequestData>
     b4e:	35 01       	movw	r6, r10
     b50:	46 01       	movw	r8, r12
     b52:	08 94       	sec
     b54:	61 1c       	adc	r6, r1
     b56:	71 1c       	adc	r7, r1
     b58:	81 1c       	adc	r8, r1
     b5a:	91 1c       	adc	r9, r1
     b5c:	13 01       	movw	r2, r6
     b5e:	24 01       	movw	r4, r8
     b60:	80 e0       	ldi	r24, 0x00	; 0
     b62:	05 c0       	rjmp	.+10     	; 0xb6e <parseRequest+0x140>
			else
			{
				break;
			}
		}
		else if(request_buffer[i]=='=')
     b64:	ed 33       	cpi	r30, 0x3D	; 61
     b66:	19 f4       	brne	.+6      	; 0xb6e <parseRequest+0x140>
     b68:	15 01       	movw	r2, r10
     b6a:	26 01       	movw	r4, r12
     b6c:	81 e0       	ldi	r24, 0x01	; 1
   uint32_t startpos = 0;
   uint32_t sepindex = 0;
   bool foundmiddle=false;

   uint32_t  i = 0;
   for(; i < buffer_size;i++)
     b6e:	08 94       	sec
     b70:	a1 1c       	adc	r10, r1
     b72:	b1 1c       	adc	r11, r1
     b74:	c1 1c       	adc	r12, r1
     b76:	d1 1c       	adc	r13, r1
     b78:	c3 53       	subi	r28, 0x33	; 51
     b7a:	df 4f       	sbci	r29, 0xFF	; 255
     b7c:	28 81       	ld	r18, Y
     b7e:	39 81       	ldd	r19, Y+1	; 0x01
     b80:	4a 81       	ldd	r20, Y+2	; 0x02
     b82:	5b 81       	ldd	r21, Y+3	; 0x03
     b84:	cd 5c       	subi	r28, 0xCD	; 205
     b86:	d0 40       	sbci	r29, 0x00	; 0
     b88:	a2 16       	cp	r10, r18
     b8a:	b3 06       	cpc	r11, r19
     b8c:	c4 06       	cpc	r12, r20
     b8e:	d5 06       	cpc	r13, r21
     b90:	08 f4       	brcc	.+2      	; 0xb94 <parseRequest+0x166>
     b92:	8f cf       	rjmp	.-226    	; 0xab2 <parseRequest+0x84>
			sepindex = i;
		}

   }
   
   if(i>startpos&&foundmiddle == true && i != sepindex)
     b94:	6a 14       	cp	r6, r10
     b96:	7b 04       	cpc	r7, r11
     b98:	8c 04       	cpc	r8, r12
     b9a:	9d 04       	cpc	r9, r13
     b9c:	98 f5       	brcc	.+102    	; 0xc04 <parseRequest+0x1d6>
     b9e:	88 23       	and	r24, r24
     ba0:	89 f1       	breq	.+98     	; 0xc04 <parseRequest+0x1d6>
     ba2:	a2 14       	cp	r10, r2
     ba4:	b3 04       	cpc	r11, r3
     ba6:	c4 04       	cpc	r12, r4
     ba8:	d5 04       	cpc	r13, r5
     baa:	61 f1       	breq	.+88     	; 0xc04 <parseRequest+0x1d6>
   {
		memcpy(string_token,request_buffer+startpos,i-startpos); 
     bac:	95 01       	movw	r18, r10
     bae:	26 19       	sub	r18, r6
     bb0:	37 09       	sbc	r19, r7
     bb2:	c5 53       	subi	r28, 0x35	; 53
     bb4:	df 4f       	sbci	r29, 0xFF	; 255
     bb6:	48 81       	ld	r20, Y
     bb8:	59 81       	ldd	r21, Y+1	; 0x01
     bba:	cb 5c       	subi	r28, 0xCB	; 203
     bbc:	d0 40       	sbci	r29, 0x00	; 0
     bbe:	46 0d       	add	r20, r6
     bc0:	57 1d       	adc	r21, r7
     bc2:	8e 01       	movw	r16, r28
     bc4:	0f 5f       	subi	r16, 0xFF	; 255
     bc6:	1f 4f       	sbci	r17, 0xFF	; 255
     bc8:	c8 01       	movw	r24, r16
     bca:	ba 01       	movw	r22, r20
     bcc:	a9 01       	movw	r20, r18
     bce:	0e 94 94 1e 	call	0x3d28	; 0x3d28 <memcpy>
		string_token[i-startpos] = '\0';
     bd2:	d6 01       	movw	r26, r12
     bd4:	c5 01       	movw	r24, r10
     bd6:	86 19       	sub	r24, r6
     bd8:	97 09       	sbc	r25, r7
     bda:	a8 09       	sbc	r26, r8
     bdc:	b9 09       	sbc	r27, r9
     bde:	f8 01       	movw	r30, r16
     be0:	e8 0f       	add	r30, r24
     be2:	f9 1f       	adc	r31, r25
     be4:	10 82       	st	Z, r1
		
		FilterRequestData(rstruct,string_token,sepindex-startpos,0,i);
     be6:	a1 01       	movw	r20, r2
     be8:	46 19       	sub	r20, r6
     bea:	57 09       	sbc	r21, r7
     bec:	c7 53       	subi	r28, 0x37	; 55
     bee:	df 4f       	sbci	r29, 0xFF	; 255
     bf0:	88 81       	ld	r24, Y
     bf2:	99 81       	ldd	r25, Y+1	; 0x01
     bf4:	c9 5c       	subi	r28, 0xC9	; 201
     bf6:	d0 40       	sbci	r29, 0x00	; 0
     bf8:	b8 01       	movw	r22, r16
     bfa:	20 e0       	ldi	r18, 0x00	; 0
     bfc:	30 e0       	ldi	r19, 0x00	; 0
     bfe:	85 01       	movw	r16, r10
     c00:	0e 94 29 04 	call	0x852	; 0x852 <FilterRequestData>
   }
  
}
     c04:	c0 53       	subi	r28, 0x30	; 48
     c06:	df 4f       	sbci	r29, 0xFF	; 255
     c08:	0f b6       	in	r0, 0x3f	; 63
     c0a:	f8 94       	cli
     c0c:	de bf       	out	0x3e, r29	; 62
     c0e:	0f be       	out	0x3f, r0	; 63
     c10:	cd bf       	out	0x3d, r28	; 61
     c12:	cf 91       	pop	r28
     c14:	df 91       	pop	r29
     c16:	1f 91       	pop	r17
     c18:	0f 91       	pop	r16
     c1a:	ff 90       	pop	r15
     c1c:	ef 90       	pop	r14
     c1e:	df 90       	pop	r13
     c20:	cf 90       	pop	r12
     c22:	bf 90       	pop	r11
     c24:	af 90       	pop	r10
     c26:	9f 90       	pop	r9
     c28:	8f 90       	pop	r8
     c2a:	7f 90       	pop	r7
     c2c:	6f 90       	pop	r6
     c2e:	5f 90       	pop	r5
     c30:	4f 90       	pop	r4
     c32:	3f 90       	pop	r3
     c34:	2f 90       	pop	r2
     c36:	08 95       	ret

00000c38 <INT0_event_DUMMY>:
// Event Handlers. 
// Please make sure that you keep the Event Handler Functions as
// short as possible! 
// --> You usually don't need this stuff. 

void INT0_event_DUMMY(void){}
     c38:	08 95       	ret

00000c3a <INT0_setEventHandler>:
static void (*INT0_eventHandler)(void) = INT0_event_DUMMY;
void INT0_setEventHandler(void (*i0eventHandler)(void))
{
	INT0_eventHandler = i0eventHandler;
     c3a:	90 93 c2 00 	sts	0x00C2, r25
     c3e:	80 93 c1 00 	sts	0x00C1, r24
}
     c42:	08 95       	ret

00000c44 <__vector_1>:

/**
 * External Interrupt 0 ISR
 */
ISR (INT0_vect)
{
     c44:	1f 92       	push	r1
     c46:	0f 92       	push	r0
     c48:	0f b6       	in	r0, 0x3f	; 63
     c4a:	0f 92       	push	r0
     c4c:	11 24       	eor	r1, r1
     c4e:	2f 93       	push	r18
     c50:	3f 93       	push	r19
     c52:	4f 93       	push	r20
     c54:	5f 93       	push	r21
     c56:	6f 93       	push	r22
     c58:	7f 93       	push	r23
     c5a:	8f 93       	push	r24
     c5c:	9f 93       	push	r25
     c5e:	af 93       	push	r26
     c60:	bf 93       	push	r27
     c62:	ef 93       	push	r30
     c64:	ff 93       	push	r31
	INT0_eventHandler();
     c66:	e0 91 c1 00 	lds	r30, 0x00C1
     c6a:	f0 91 c2 00 	lds	r31, 0x00C2
     c6e:	09 95       	icall
}
     c70:	ff 91       	pop	r31
     c72:	ef 91       	pop	r30
     c74:	bf 91       	pop	r27
     c76:	af 91       	pop	r26
     c78:	9f 91       	pop	r25
     c7a:	8f 91       	pop	r24
     c7c:	7f 91       	pop	r23
     c7e:	6f 91       	pop	r22
     c80:	5f 91       	pop	r21
     c82:	4f 91       	pop	r20
     c84:	3f 91       	pop	r19
     c86:	2f 91       	pop	r18
     c88:	0f 90       	pop	r0
     c8a:	0f be       	out	0x3f, r0	; 63
     c8c:	0f 90       	pop	r0
     c8e:	1f 90       	pop	r1
     c90:	18 95       	reti

00000c92 <INT1_event_DUMMY>:

void INT1_event_DUMMY(void){}
     c92:	08 95       	ret

00000c94 <INT1_setEventHandler>:
static void (*INT1_eventHandler)(void) = INT1_event_DUMMY;
void INT1_setEventHandler(void (*i1eventHandler)(void))
{
	INT1_eventHandler = i1eventHandler;
     c94:	90 93 c0 00 	sts	0x00C0, r25
     c98:	80 93 bf 00 	sts	0x00BF, r24
}
     c9c:	08 95       	ret

00000c9e <__vector_2>:

/**
 * External Interrupt 1 ISR
 */
ISR (INT1_vect)
{
     c9e:	1f 92       	push	r1
     ca0:	0f 92       	push	r0
     ca2:	0f b6       	in	r0, 0x3f	; 63
     ca4:	0f 92       	push	r0
     ca6:	11 24       	eor	r1, r1
     ca8:	2f 93       	push	r18
     caa:	3f 93       	push	r19
     cac:	4f 93       	push	r20
     cae:	5f 93       	push	r21
     cb0:	6f 93       	push	r22
     cb2:	7f 93       	push	r23
     cb4:	8f 93       	push	r24
     cb6:	9f 93       	push	r25
     cb8:	af 93       	push	r26
     cba:	bf 93       	push	r27
     cbc:	ef 93       	push	r30
     cbe:	ff 93       	push	r31
	INT1_eventHandler();
     cc0:	e0 91 bf 00 	lds	r30, 0x00BF
     cc4:	f0 91 c0 00 	lds	r31, 0x00C0
     cc8:	09 95       	icall
}
     cca:	ff 91       	pop	r31
     ccc:	ef 91       	pop	r30
     cce:	bf 91       	pop	r27
     cd0:	af 91       	pop	r26
     cd2:	9f 91       	pop	r25
     cd4:	8f 91       	pop	r24
     cd6:	7f 91       	pop	r23
     cd8:	6f 91       	pop	r22
     cda:	5f 91       	pop	r21
     cdc:	4f 91       	pop	r20
     cde:	3f 91       	pop	r19
     ce0:	2f 91       	pop	r18
     ce2:	0f 90       	pop	r0
     ce4:	0f be       	out	0x3f, r0	; 63
     ce6:	0f 90       	pop	r0
     ce8:	1f 90       	pop	r1
     cea:	18 95       	reti

00000cec <INT2_event_DUMMY>:

void INT2_event_DUMMY(void){}
     cec:	08 95       	ret

00000cee <INT2_setEventHandler>:
static void (*INT2_eventHandler)(void) = INT2_event_DUMMY;
void INT2_setEventHandler(void (*i2eventHandler)(void))
{
	INT2_eventHandler = i2eventHandler;
     cee:	90 93 be 00 	sts	0x00BE, r25
     cf2:	80 93 bd 00 	sts	0x00BD, r24
}
     cf6:	08 95       	ret

00000cf8 <__vector_3>:

/**
 * External Interrupt 2 ISR
 */
ISR (INT2_vect)
{
     cf8:	1f 92       	push	r1
     cfa:	0f 92       	push	r0
     cfc:	0f b6       	in	r0, 0x3f	; 63
     cfe:	0f 92       	push	r0
     d00:	11 24       	eor	r1, r1
     d02:	2f 93       	push	r18
     d04:	3f 93       	push	r19
     d06:	4f 93       	push	r20
     d08:	5f 93       	push	r21
     d0a:	6f 93       	push	r22
     d0c:	7f 93       	push	r23
     d0e:	8f 93       	push	r24
     d10:	9f 93       	push	r25
     d12:	af 93       	push	r26
     d14:	bf 93       	push	r27
     d16:	ef 93       	push	r30
     d18:	ff 93       	push	r31
	INT2_eventHandler();
     d1a:	e0 91 bd 00 	lds	r30, 0x00BD
     d1e:	f0 91 be 00 	lds	r31, 0x00BE
     d22:	09 95       	icall
}
     d24:	ff 91       	pop	r31
     d26:	ef 91       	pop	r30
     d28:	bf 91       	pop	r27
     d2a:	af 91       	pop	r26
     d2c:	9f 91       	pop	r25
     d2e:	8f 91       	pop	r24
     d30:	7f 91       	pop	r23
     d32:	6f 91       	pop	r22
     d34:	5f 91       	pop	r21
     d36:	4f 91       	pop	r20
     d38:	3f 91       	pop	r19
     d3a:	2f 91       	pop	r18
     d3c:	0f 90       	pop	r0
     d3e:	0f be       	out	0x3f, r0	; 63
     d40:	0f 90       	pop	r0
     d42:	1f 90       	pop	r1
     d44:	18 95       	reti

00000d46 <readADC>:
 * is complete. 
 *
 */
uint16_t readADC(uint8_t channel)
{
	if((ADCSRA & (1<<ADSC))) return 0; // check if ADC is buisy...
     d46:	36 9b       	sbis	0x06, 6	; 6
     d48:	03 c0       	rjmp	.+6      	; 0xd50 <readADC+0xa>
     d4a:	20 e0       	ldi	r18, 0x00	; 0
     d4c:	30 e0       	ldi	r19, 0x00	; 0
     d4e:	09 c0       	rjmp	.+18     	; 0xd62 <readADC+0x1c>
	ADMUX = (1<<REFS0) | (0<<REFS1) | (channel<<MUX0);
     d50:	80 64       	ori	r24, 0x40	; 64
     d52:	87 b9       	out	0x07, r24	; 7
	ADCSRA = (0<<ADIE) | (1<<ADSC) | (1<<ADEN) | (1<<ADPS2) | (1<<ADPS1) | (1<<ADIF);
     d54:	86 ed       	ldi	r24, 0xD6	; 214
     d56:	86 b9       	out	0x06, r24	; 6
	while ((ADCSRA & (1<<ADSC))); 
     d58:	36 99       	sbic	0x06, 6	; 6
     d5a:	fe cf       	rjmp	.-4      	; 0xd58 <readADC+0x12>
	ADCSRA |= (1<<ADIF);
     d5c:	34 9a       	sbi	0x06, 4	; 6
	return ADC;
     d5e:	24 b1       	in	r18, 0x04	; 4
     d60:	35 b1       	in	r19, 0x05	; 5
}
     d62:	c9 01       	movw	r24, r18
     d64:	08 95       	ret

00000d66 <writeSPI>:
/**
 * Writes a single Databyte to the SPI Interface.
 */
void writeSPI(uint8_t data) 
{     
	SPDR = data;    
     d66:	8f b9       	out	0x0f, r24	; 15
	while(!(SPSR & (1<<SPIF)));
     d68:	77 9b       	sbis	0x0e, 7	; 14
     d6a:	fe cf       	rjmp	.-4      	; 0xd68 <writeSPI+0x2>
}
     d6c:	08 95       	ret

00000d6e <readSPI>:
/**
 * Writes a single Databyte to the SPI Interface.
 */
void writeSPI(uint8_t data) 
{     
	SPDR = data;    
     d6e:	8f ef       	ldi	r24, 0xFF	; 255
     d70:	8f b9       	out	0x0f, r24	; 15
	while(!(SPSR & (1<<SPIF)));
     d72:	77 9b       	sbis	0x0e, 7	; 14
     d74:	fe cf       	rjmp	.-4      	; 0xd72 <readSPI+0x4>
 * Reads a single Databyte from the SPI Interface.
 */
uint8_t readSPI(void)
{
	writeSPI(0xFF);
	return SPDR;
     d76:	8f b1       	in	r24, 0x0f	; 15
}
     d78:	08 95       	ret

00000d7a <readWordSPI>:
/**
 * Writes a single Databyte to the SPI Interface.
 */
void writeSPI(uint8_t data) 
{     
	SPDR = data;    
     d7a:	8f ef       	ldi	r24, 0xFF	; 255
     d7c:	8f b9       	out	0x0f, r24	; 15
	while(!(SPSR & (1<<SPIF)));
     d7e:	77 9b       	sbis	0x0e, 7	; 14
     d80:	fe cf       	rjmp	.-4      	; 0xd7e <readWordSPI+0x4>
 * Reads a single Databyte from the SPI Interface.
 */
uint8_t readSPI(void)
{
	writeSPI(0xFF);
	return SPDR;
     d82:	3f b1       	in	r19, 0x0f	; 15
/**
 * Writes a single Databyte to the SPI Interface.
 */
void writeSPI(uint8_t data) 
{     
	SPDR = data;    
     d84:	8f ef       	ldi	r24, 0xFF	; 255
     d86:	8f b9       	out	0x0f, r24	; 15
	while(!(SPSR & (1<<SPIF)));
     d88:	77 9b       	sbis	0x0e, 7	; 14
     d8a:	fe cf       	rjmp	.-4      	; 0xd88 <readWordSPI+0xe>
 * Reads a single Databyte from the SPI Interface.
 */
uint8_t readSPI(void)
{
	writeSPI(0xFF);
	return SPDR;
     d8c:	2f b1       	in	r18, 0x0f	; 15
 * a 16 Bit value with first byte read in the upper 8 bits.
 */
uint16_t readWordSPI(void)
{
	uint16_t data = 0;
	data = readSPI() << 8;
     d8e:	93 2f       	mov	r25, r19
     d90:	80 e0       	ldi	r24, 0x00	; 0
     d92:	30 e0       	ldi	r19, 0x00	; 0
     d94:	28 2b       	or	r18, r24
     d96:	39 2b       	or	r19, r25
	data |= readSPI();
	return data;
}
     d98:	c9 01       	movw	r24, r18
     d9a:	08 95       	ret

00000d9c <writeWordSPI>:
/**
 * Writes a single Databyte to the SPI Interface.
 */
void writeSPI(uint8_t data) 
{     
	SPDR = data;    
     d9c:	9f b9       	out	0x0f, r25	; 15
	while(!(SPSR & (1<<SPIF)));
     d9e:	77 9b       	sbis	0x0e, 7	; 14
     da0:	fe cf       	rjmp	.-4      	; 0xd9e <writeWordSPI+0x2>
/**
 * Writes a single Databyte to the SPI Interface.
 */
void writeSPI(uint8_t data) 
{     
	SPDR = data;    
     da2:	8f b9       	out	0x0f, r24	; 15
	while(!(SPSR & (1<<SPIF)));
     da4:	77 9b       	sbis	0x0e, 7	; 14
     da6:	fe cf       	rjmp	.-4      	; 0xda4 <writeWordSPI+0x8>
 */
void writeWordSPI(uint16_t data)
{
	writeSPI((uint8_t)(data >> 8));
	writeSPI((uint8_t)data);
}
     da8:	08 95       	ret

00000daa <writeBufferSPI>:
 * This function writes up to 255 Bytes to the SPI Interface.
 * The numer of bytes in the Buffer that shall be written is given 
 * by the parameter length.
 */
void writeBufferSPI(uint8_t *buffer, uint8_t length)
{
     daa:	fc 01       	movw	r30, r24
     dac:	90 e0       	ldi	r25, 0x00	; 0
     dae:	06 c0       	rjmp	.+12     	; 0xdbc <writeBufferSPI+0x12>
	uint8_t i = 0;
	for(; i < length; i++) {
		SPDR = buffer[i];    
     db0:	80 81       	ld	r24, Z
     db2:	8f b9       	out	0x0f, r24	; 15
		while(!(SPSR & (1<<SPIF)));
     db4:	77 9b       	sbis	0x0e, 7	; 14
     db6:	fe cf       	rjmp	.-4      	; 0xdb4 <writeBufferSPI+0xa>
 * by the parameter length.
 */
void writeBufferSPI(uint8_t *buffer, uint8_t length)
{
	uint8_t i = 0;
	for(; i < length; i++) {
     db8:	9f 5f       	subi	r25, 0xFF	; 255
     dba:	31 96       	adiw	r30, 0x01	; 1
     dbc:	96 17       	cp	r25, r22
     dbe:	c0 f3       	brcs	.-16     	; 0xdb0 <writeBufferSPI+0x6>
		SPDR = buffer[i];    
		while(!(SPSR & (1<<SPIF)));
	}
}
     dc0:	08 95       	ret

00000dc2 <readBufferSPI>:

/** 
 * Reads "length" Bytes from SPI Interface into the buffer.
 */
void readBufferSPI(uint8_t *buffer, uint8_t length)
{
     dc2:	fc 01       	movw	r30, r24
     dc4:	90 e0       	ldi	r25, 0x00	; 0
	uint8_t i = 0;
	for(; i < length; i++) {
		SPDR = 0xFF;    
     dc6:	2f ef       	ldi	r18, 0xFF	; 255
     dc8:	06 c0       	rjmp	.+12     	; 0xdd6 <readBufferSPI+0x14>
     dca:	2f b9       	out	0x0f, r18	; 15
		while(!(SPSR & (1<<SPIF)));
     dcc:	77 9b       	sbis	0x0e, 7	; 14
     dce:	fe cf       	rjmp	.-4      	; 0xdcc <readBufferSPI+0xa>
		buffer[i] = SPDR;
     dd0:	8f b1       	in	r24, 0x0f	; 15
     dd2:	81 93       	st	Z+, r24
 * Reads "length" Bytes from SPI Interface into the buffer.
 */
void readBufferSPI(uint8_t *buffer, uint8_t length)
{
	uint8_t i = 0;
	for(; i < length; i++) {
     dd4:	9f 5f       	subi	r25, 0xFF	; 255
     dd6:	96 17       	cp	r25, r22
     dd8:	c0 f3       	brcs	.-16     	; 0xdca <readBufferSPI+0x8>
		SPDR = 0xFF;    
		while(!(SPSR & (1<<SPIF)));
		buffer[i] = SPDR;
	}
}
     dda:	08 95       	ret

00000ddc <SPI_EEPROM_readByte>:

/**
 * Reads a single Byte from the external EEPROM.
 */
uint8_t SPI_EEPROM_readByte(uint16_t memAddr)
{
     ddc:	9c 01       	movw	r18, r24
	uint8_t data;
	PORTB &= ~MEM_CS;
     dde:	c0 98       	cbi	0x18, 0	; 24
/**
 * Writes a single Databyte to the SPI Interface.
 */
void writeSPI(uint8_t data) 
{     
	SPDR = data;    
     de0:	83 e0       	ldi	r24, 0x03	; 3
     de2:	8f b9       	out	0x0f, r24	; 15
	while(!(SPSR & (1<<SPIF)));
     de4:	77 9b       	sbis	0x0e, 7	; 14
     de6:	fe cf       	rjmp	.-4      	; 0xde4 <SPI_EEPROM_readByte+0x8>
uint8_t SPI_EEPROM_readByte(uint16_t memAddr)
{
	uint8_t data;
	PORTB &= ~MEM_CS;
	writeSPI(SPI_EEPROM_READ);
	writeWordSPI(memAddr);
     de8:	c9 01       	movw	r24, r18
     dea:	0e 94 ce 06 	call	0xd9c	; 0xd9c <writeWordSPI>
/**
 * Writes a single Databyte to the SPI Interface.
 */
void writeSPI(uint8_t data) 
{     
	SPDR = data;    
     dee:	8f ef       	ldi	r24, 0xFF	; 255
     df0:	8f b9       	out	0x0f, r24	; 15
	while(!(SPSR & (1<<SPIF)));
     df2:	77 9b       	sbis	0x0e, 7	; 14
     df4:	fe cf       	rjmp	.-4      	; 0xdf2 <SPI_EEPROM_readByte+0x16>
 * Reads a single Databyte from the SPI Interface.
 */
uint8_t readSPI(void)
{
	writeSPI(0xFF);
	return SPDR;
     df6:	8f b1       	in	r24, 0x0f	; 15
	uint8_t data;
	PORTB &= ~MEM_CS;
	writeSPI(SPI_EEPROM_READ);
	writeWordSPI(memAddr);
	data = readSPI();
	PORTB |= MEM_CS;
     df8:	c0 9a       	sbi	0x18, 0	; 24
	return data;
}
     dfa:	08 95       	ret

00000dfc <SPI_EEPROM_readBytes>:
 * Reads "length" Bytes into the Buffer "buffer" from startAdr on. 
 * You can read the complete EEPROM into a buffer at once - if it is large enough. 
 * (But you only have 2KB SRAM on a MEGA32 ;) )
 */
void SPI_EEPROM_readBytes(uint16_t startAddr, uint8_t *buffer, uint8_t length)
{
     dfc:	1f 93       	push	r17
     dfe:	cf 93       	push	r28
     e00:	df 93       	push	r29
     e02:	9c 01       	movw	r18, r24
     e04:	eb 01       	movw	r28, r22
     e06:	14 2f       	mov	r17, r20
	PORTB &= ~MEM_CS;
     e08:	c0 98       	cbi	0x18, 0	; 24
/**
 * Writes a single Databyte to the SPI Interface.
 */
void writeSPI(uint8_t data) 
{     
	SPDR = data;    
     e0a:	83 e0       	ldi	r24, 0x03	; 3
     e0c:	8f b9       	out	0x0f, r24	; 15
	while(!(SPSR & (1<<SPIF)));
     e0e:	77 9b       	sbis	0x0e, 7	; 14
     e10:	fe cf       	rjmp	.-4      	; 0xe0e <SPI_EEPROM_readBytes+0x12>
 */
void SPI_EEPROM_readBytes(uint16_t startAddr, uint8_t *buffer, uint8_t length)
{
	PORTB &= ~MEM_CS;
	writeSPI(SPI_EEPROM_READ);
	writeWordSPI(startAddr);
     e12:	c9 01       	movw	r24, r18
     e14:	0e 94 ce 06 	call	0xd9c	; 0xd9c <writeWordSPI>
	readBufferSPI(&buffer[0], length);
     e18:	ce 01       	movw	r24, r28
     e1a:	61 2f       	mov	r22, r17
     e1c:	0e 94 e1 06 	call	0xdc2	; 0xdc2 <readBufferSPI>
	PORTB |= MEM_CS;
     e20:	c0 9a       	sbi	0x18, 0	; 24
}
     e22:	df 91       	pop	r29
     e24:	cf 91       	pop	r28
     e26:	1f 91       	pop	r17
     e28:	08 95       	ret

00000e2a <SPI_EEPROM_enableWrite>:
/**
 * Enable Write Mode
 */
void SPI_EEPROM_enableWrite(void)
{
	PORTB &= ~MEM_CS;
     e2a:	c0 98       	cbi	0x18, 0	; 24
/**
 * Writes a single Databyte to the SPI Interface.
 */
void writeSPI(uint8_t data) 
{     
	SPDR = data;    
     e2c:	86 e0       	ldi	r24, 0x06	; 6
     e2e:	8f b9       	out	0x0f, r24	; 15
	while(!(SPSR & (1<<SPIF)));
     e30:	77 9b       	sbis	0x0e, 7	; 14
     e32:	fe cf       	rjmp	.-4      	; 0xe30 <SPI_EEPROM_enableWrite+0x6>
 */
void SPI_EEPROM_enableWrite(void)
{
	PORTB &= ~MEM_CS;
	writeSPI(SPI_EEPROM_WREN);
	PORTB |= MEM_CS;
     e34:	c0 9a       	sbi	0x18, 0	; 24
}
     e36:	08 95       	ret

00000e38 <SPI_EEPROM_disableWrite>:
/**
 * Disable Write Mode
 */
void SPI_EEPROM_disableWrite(void)
{
	PORTB &= ~MEM_CS;
     e38:	c0 98       	cbi	0x18, 0	; 24
/**
 * Writes a single Databyte to the SPI Interface.
 */
void writeSPI(uint8_t data) 
{     
	SPDR = data;    
     e3a:	84 e0       	ldi	r24, 0x04	; 4
     e3c:	8f b9       	out	0x0f, r24	; 15
	while(!(SPSR & (1<<SPIF)));
     e3e:	77 9b       	sbis	0x0e, 7	; 14
     e40:	fe cf       	rjmp	.-4      	; 0xe3e <SPI_EEPROM_disableWrite+0x6>
 */
void SPI_EEPROM_disableWrite(void)
{
	PORTB &= ~MEM_CS;
	writeSPI(SPI_EEPROM_WRDI);
	PORTB |= MEM_CS;
     e42:	c0 9a       	sbi	0x18, 0	; 24
}
     e44:	08 95       	ret

00000e46 <SPI_EEPROM_getStatus>:
 * Writing takes about 5ms. 
 */
uint8_t SPI_EEPROM_getStatus(void)
{
	uint8_t status;
	PORTB &= ~MEM_CS;
     e46:	c0 98       	cbi	0x18, 0	; 24
/**
 * Writes a single Databyte to the SPI Interface.
 */
void writeSPI(uint8_t data) 
{     
	SPDR = data;    
     e48:	85 e0       	ldi	r24, 0x05	; 5
     e4a:	8f b9       	out	0x0f, r24	; 15
	while(!(SPSR & (1<<SPIF)));
     e4c:	77 9b       	sbis	0x0e, 7	; 14
     e4e:	fe cf       	rjmp	.-4      	; 0xe4c <SPI_EEPROM_getStatus+0x6>
/**
 * Writes a single Databyte to the SPI Interface.
 */
void writeSPI(uint8_t data) 
{     
	SPDR = data;    
     e50:	8f ef       	ldi	r24, 0xFF	; 255
     e52:	8f b9       	out	0x0f, r24	; 15
	while(!(SPSR & (1<<SPIF)));
     e54:	77 9b       	sbis	0x0e, 7	; 14
     e56:	fe cf       	rjmp	.-4      	; 0xe54 <SPI_EEPROM_getStatus+0xe>
 * Reads a single Databyte from the SPI Interface.
 */
uint8_t readSPI(void)
{
	writeSPI(0xFF);
	return SPDR;
     e58:	8f b1       	in	r24, 0x0f	; 15
{
	uint8_t status;
	PORTB &= ~MEM_CS;
	writeSPI(SPI_EEPROM_RDSR);
	status = readSPI();
	PORTB |= MEM_CS;
     e5a:	c0 9a       	sbi	0x18, 0	; 24
	return status;
}
     e5c:	08 95       	ret

00000e5e <SPI_EEPROM_writeBytes>:
 * instead only up to 63 and then it continues at Byte 0 and writes 
 * the rest up to Byte 10!
 *
 */
void SPI_EEPROM_writeBytes(uint16_t startAddr, uint8_t *buffer, uint8_t length)
{
     e5e:	ff 92       	push	r15
     e60:	0f 93       	push	r16
     e62:	1f 93       	push	r17
     e64:	cf 93       	push	r28
     e66:	df 93       	push	r29
     e68:	ec 01       	movw	r28, r24
     e6a:	16 2f       	mov	r17, r22
     e6c:	07 2f       	mov	r16, r23
     e6e:	f4 2e       	mov	r15, r20
	while(SPI_EEPROM_getStatus() & SPI_EEPROM_STAT_WIP);
     e70:	0e 94 23 07 	call	0xe46	; 0xe46 <SPI_EEPROM_getStatus>
     e74:	80 fd       	sbrc	r24, 0
     e76:	fc cf       	rjmp	.-8      	; 0xe70 <SPI_EEPROM_writeBytes+0x12>
	SPI_EEPROM_enableWrite();
     e78:	0e 94 15 07 	call	0xe2a	; 0xe2a <SPI_EEPROM_enableWrite>
	PORTB &= ~MEM_CS;
     e7c:	c0 98       	cbi	0x18, 0	; 24
/**
 * Writes a single Databyte to the SPI Interface.
 */
void writeSPI(uint8_t data) 
{     
	SPDR = data;    
     e7e:	82 e0       	ldi	r24, 0x02	; 2
     e80:	8f b9       	out	0x0f, r24	; 15
	while(!(SPSR & (1<<SPIF)));
     e82:	77 9b       	sbis	0x0e, 7	; 14
     e84:	fe cf       	rjmp	.-4      	; 0xe82 <SPI_EEPROM_writeBytes+0x24>
{
	while(SPI_EEPROM_getStatus() & SPI_EEPROM_STAT_WIP);
	SPI_EEPROM_enableWrite();
	PORTB &= ~MEM_CS;
	writeSPI(SPI_EEPROM_WRITE);
	writeWordSPI(startAddr);
     e86:	ce 01       	movw	r24, r28
     e88:	0e 94 ce 06 	call	0xd9c	; 0xd9c <writeWordSPI>
     e8c:	81 2f       	mov	r24, r17
     e8e:	90 2f       	mov	r25, r16
     e90:	9c 01       	movw	r18, r24
     e92:	f9 01       	movw	r30, r18
     e94:	90 e0       	ldi	r25, 0x00	; 0
     e96:	06 c0       	rjmp	.+12     	; 0xea4 <SPI_EEPROM_writeBytes+0x46>
 */
void writeBufferSPI(uint8_t *buffer, uint8_t length)
{
	uint8_t i = 0;
	for(; i < length; i++) {
		SPDR = buffer[i];    
     e98:	80 81       	ld	r24, Z
     e9a:	8f b9       	out	0x0f, r24	; 15
		while(!(SPSR & (1<<SPIF)));
     e9c:	77 9b       	sbis	0x0e, 7	; 14
     e9e:	fe cf       	rjmp	.-4      	; 0xe9c <SPI_EEPROM_writeBytes+0x3e>
 * by the parameter length.
 */
void writeBufferSPI(uint8_t *buffer, uint8_t length)
{
	uint8_t i = 0;
	for(; i < length; i++) {
     ea0:	9f 5f       	subi	r25, 0xFF	; 255
     ea2:	31 96       	adiw	r30, 0x01	; 1
     ea4:	9f 15       	cp	r25, r15
     ea6:	c0 f3       	brcs	.-16     	; 0xe98 <SPI_EEPROM_writeBytes+0x3a>
	SPI_EEPROM_enableWrite();
	PORTB &= ~MEM_CS;
	writeSPI(SPI_EEPROM_WRITE);
	writeWordSPI(startAddr);
	writeBufferSPI(&buffer[0], length);
	PORTB |= MEM_CS;
     ea8:	c0 9a       	sbi	0x18, 0	; 24
}
     eaa:	df 91       	pop	r29
     eac:	cf 91       	pop	r28
     eae:	1f 91       	pop	r17
     eb0:	0f 91       	pop	r16
     eb2:	ff 90       	pop	r15
     eb4:	08 95       	ret

00000eb6 <SPI_EEPROM_writeByte>:

/**
 * Write a single data byte to the specified EEPROM address.
 */
void SPI_EEPROM_writeByte(uint16_t memAddr, uint8_t data)
{
     eb6:	1f 93       	push	r17
     eb8:	cf 93       	push	r28
     eba:	df 93       	push	r29
     ebc:	ec 01       	movw	r28, r24
     ebe:	16 2f       	mov	r17, r22
	while(SPI_EEPROM_getStatus() & SPI_EEPROM_STAT_WIP);
     ec0:	0e 94 23 07 	call	0xe46	; 0xe46 <SPI_EEPROM_getStatus>
     ec4:	80 fd       	sbrc	r24, 0
     ec6:	fc cf       	rjmp	.-8      	; 0xec0 <SPI_EEPROM_writeByte+0xa>
	SPI_EEPROM_enableWrite();
     ec8:	0e 94 15 07 	call	0xe2a	; 0xe2a <SPI_EEPROM_enableWrite>
	PORTB &= ~MEM_CS;
     ecc:	c0 98       	cbi	0x18, 0	; 24
/**
 * Writes a single Databyte to the SPI Interface.
 */
void writeSPI(uint8_t data) 
{     
	SPDR = data;    
     ece:	82 e0       	ldi	r24, 0x02	; 2
     ed0:	8f b9       	out	0x0f, r24	; 15
	while(!(SPSR & (1<<SPIF)));
     ed2:	77 9b       	sbis	0x0e, 7	; 14
     ed4:	fe cf       	rjmp	.-4      	; 0xed2 <SPI_EEPROM_writeByte+0x1c>
{
	while(SPI_EEPROM_getStatus() & SPI_EEPROM_STAT_WIP);
	SPI_EEPROM_enableWrite();
	PORTB &= ~MEM_CS;
	writeSPI(SPI_EEPROM_WRITE);
	writeWordSPI(memAddr);
     ed6:	ce 01       	movw	r24, r28
     ed8:	0e 94 ce 06 	call	0xd9c	; 0xd9c <writeWordSPI>
/**
 * Writes a single Databyte to the SPI Interface.
 */
void writeSPI(uint8_t data) 
{     
	SPDR = data;    
     edc:	1f b9       	out	0x0f, r17	; 15
	while(!(SPSR & (1<<SPIF)));
     ede:	77 9b       	sbis	0x0e, 7	; 14
     ee0:	fe cf       	rjmp	.-4      	; 0xede <SPI_EEPROM_writeByte+0x28>
	SPI_EEPROM_enableWrite();
	PORTB &= ~MEM_CS;
	writeSPI(SPI_EEPROM_WRITE);
	writeWordSPI(memAddr);
	writeSPI(data);
	PORTB |= MEM_CS;
     ee2:	c0 9a       	sbi	0x18, 0	; 24
}
     ee4:	df 91       	pop	r29
     ee6:	cf 91       	pop	r28
     ee8:	1f 91       	pop	r17
     eea:	08 95       	ret

00000eec <outputExt>:
 * in 4 or 8bit mode - we use 4bit mode to save portpins) 
 *
 */
void outputExt(void)
{      
  writeSPI(externalPort.byte);   
     eec:	80 91 14 03 	lds	r24, 0x0314
/**
 * Writes a single Databyte to the SPI Interface.
 */
void writeSPI(uint8_t data) 
{     
	SPDR = data;    
     ef0:	8f b9       	out	0x0f, r24	; 15
	while(!(SPSR & (1<<SPIF)));
     ef2:	77 9b       	sbis	0x0e, 7	; 14
     ef4:	fe cf       	rjmp	.-4      	; 0xef2 <outputExt+0x6>
 *
 */
void outputExt(void)
{      
  writeSPI(externalPort.byte);   
  PORTD |= STR;
     ef6:	94 9a       	sbi	0x12, 4	; 18
  nop();
     ef8:	00 00       	nop
  nop();
     efa:	00 00       	nop
  PORTD &= ~STR;        
     efc:	94 98       	cbi	0x12, 4	; 18
}
     efe:	08 95       	ret

00000f00 <setLEDs>:
 * are connected to the LCD! 
 *
 */
void setLEDs(uint8_t leds)
{
	externalPort.LEDS = leds;
     f00:	8f 70       	andi	r24, 0x0F	; 15
     f02:	90 91 14 03 	lds	r25, 0x0314
     f06:	90 7f       	andi	r25, 0xF0	; 240
     f08:	98 2b       	or	r25, r24
     f0a:	90 93 14 03 	sts	0x0314, r25
	outputExt();
     f0e:	0e 94 76 07 	call	0xeec	; 0xeec <outputExt>
}
     f12:	08 95       	ret

00000f14 <setLCDD>:
 * enable line of the LCD to 'inform' the LCD about the new data.
 *
 */
void setLCDD(uint8_t lcdd)
{
	externalPort.LCDD = lcdd;
     f14:	82 95       	swap	r24
     f16:	80 7f       	andi	r24, 0xF0	; 240
     f18:	90 91 14 03 	lds	r25, 0x0314
     f1c:	9f 70       	andi	r25, 0x0F	; 15
     f1e:	98 2b       	or	r25, r24
     f20:	90 93 14 03 	sts	0x0314, r25
	outputExt();
     f24:	0e 94 76 07 	call	0xeec	; 0xeec <outputExt>
	PORTB |= LCD_EN;
     f28:	c4 9a       	sbi	0x18, 4	; 24
     f2a:	82 e3       	ldi	r24, 0x32	; 50
     f2c:	90 e0       	ldi	r25, 0x00	; 0
     f2e:	01 c0       	rjmp	.+2      	; 0xf32 <setLCDD+0x1e>
 * Example:
 * 	delayCycles(1000); // Delays for *about* 1000 instruction cycles
 */
void delayCycles(uint16_t dly)
{
	while(dly--) nop();
     f30:	00 00       	nop
     f32:	01 97       	sbiw	r24, 0x01	; 1
     f34:	2f ef       	ldi	r18, 0xFF	; 255
     f36:	8f 3f       	cpi	r24, 0xFF	; 255
     f38:	92 07       	cpc	r25, r18
     f3a:	d1 f7       	brne	.-12     	; 0xf30 <setLCDD+0x1c>
{
	externalPort.LCDD = lcdd;
	outputExt();
	PORTB |= LCD_EN;
	delayCycles(50);
	PORTB &= ~LCD_EN;
     f3c:	c4 98       	cbi	0x18, 4	; 24
}
     f3e:	08 95       	ret

00000f40 <write4BitLCDData>:

/**
 * Write a 8bit-byte in two nibbles of 4bit to the LCD.
 */
void write4BitLCDData(uint8_t data)
{
     f40:	1f 93       	push	r17
     f42:	18 2f       	mov	r17, r24
	setLCDD(data >> 4);
     f44:	82 95       	swap	r24
     f46:	8f 70       	andi	r24, 0x0F	; 15
     f48:	0e 94 8a 07 	call	0xf14	; 0xf14 <setLCDD>
	setLCDD(data);
     f4c:	81 2f       	mov	r24, r17
     f4e:	0e 94 8a 07 	call	0xf14	; 0xf14 <setLCDD>
     f52:	86 e9       	ldi	r24, 0x96	; 150
     f54:	90 e0       	ldi	r25, 0x00	; 0
     f56:	01 c0       	rjmp	.+2      	; 0xf5a <write4BitLCDData+0x1a>
 * Example:
 * 	delayCycles(1000); // Delays for *about* 1000 instruction cycles
 */
void delayCycles(uint16_t dly)
{
	while(dly--) nop();
     f58:	00 00       	nop
     f5a:	01 97       	sbiw	r24, 0x01	; 1
     f5c:	2f ef       	ldi	r18, 0xFF	; 255
     f5e:	8f 3f       	cpi	r24, 0xFF	; 255
     f60:	92 07       	cpc	r25, r18
     f62:	d1 f7       	brne	.-12     	; 0xf58 <write4BitLCDData+0x18>
void write4BitLCDData(uint8_t data)
{
	setLCDD(data >> 4);
	setLCDD(data);
	delayCycles(150);
}
     f64:	1f 91       	pop	r17
     f66:	08 95       	ret

00000f68 <writeLCDCommand>:
/**
 * Write a command to the LCD.
 */
void writeLCDCommand(uint8_t cmd)
{
	PORTB &= ~LCD_RS;
     f68:	c3 98       	cbi	0x18, 3	; 24
	write4BitLCDData(cmd);
     f6a:	0e 94 a0 07 	call	0xf40	; 0xf40 <write4BitLCDData>
     f6e:	86 e9       	ldi	r24, 0x96	; 150
     f70:	90 e0       	ldi	r25, 0x00	; 0
     f72:	01 c0       	rjmp	.+2      	; 0xf76 <writeLCDCommand+0xe>
 * Example:
 * 	delayCycles(1000); // Delays for *about* 1000 instruction cycles
 */
void delayCycles(uint16_t dly)
{
	while(dly--) nop();
     f74:	00 00       	nop
     f76:	01 97       	sbiw	r24, 0x01	; 1
     f78:	2f ef       	ldi	r18, 0xFF	; 255
     f7a:	8f 3f       	cpi	r24, 0xFF	; 255
     f7c:	92 07       	cpc	r25, r18
     f7e:	d1 f7       	brne	.-12     	; 0xf74 <writeLCDCommand+0xc>
void writeLCDCommand(uint8_t cmd)
{
	PORTB &= ~LCD_RS;
	write4BitLCDData(cmd);
	delayCycles(150);
}
     f80:	08 95       	ret

00000f82 <initLCD>:
 */
void initLCD(void)
{
	//delayCycles(34000); No need for Power ON delay as usually the
	// Bootloader should have been executed before...
	setLCDD(0b0011);
     f82:	83 e0       	ldi	r24, 0x03	; 3
     f84:	0e 94 8a 07 	call	0xf14	; 0xf14 <setLCDD>
     f88:	80 e5       	ldi	r24, 0x50	; 80
     f8a:	96 e4       	ldi	r25, 0x46	; 70
     f8c:	01 c0       	rjmp	.+2      	; 0xf90 <initLCD+0xe>
 * Example:
 * 	delayCycles(1000); // Delays for *about* 1000 instruction cycles
 */
void delayCycles(uint16_t dly)
{
	while(dly--) nop();
     f8e:	00 00       	nop
     f90:	01 97       	sbiw	r24, 0x01	; 1
     f92:	2f ef       	ldi	r18, 0xFF	; 255
     f94:	8f 3f       	cpi	r24, 0xFF	; 255
     f96:	92 07       	cpc	r25, r18
     f98:	d1 f7       	brne	.-12     	; 0xf8e <initLCD+0xc>
{
	//delayCycles(34000); No need for Power ON delay as usually the
	// Bootloader should have been executed before...
	setLCDD(0b0011);
	delayCycles(18000);
	setLCDD(0b0011);
     f9a:	83 e0       	ldi	r24, 0x03	; 3
     f9c:	0e 94 8a 07 	call	0xf14	; 0xf14 <setLCDD>
     fa0:	8c e7       	ldi	r24, 0x7C	; 124
     fa2:	95 e1       	ldi	r25, 0x15	; 21
     fa4:	01 c0       	rjmp	.+2      	; 0xfa8 <initLCD+0x26>
 * Example:
 * 	delayCycles(1000); // Delays for *about* 1000 instruction cycles
 */
void delayCycles(uint16_t dly)
{
	while(dly--) nop();
     fa6:	00 00       	nop
     fa8:	01 97       	sbiw	r24, 0x01	; 1
     faa:	2f ef       	ldi	r18, 0xFF	; 255
     fac:	8f 3f       	cpi	r24, 0xFF	; 255
     fae:	92 07       	cpc	r25, r18
     fb0:	d1 f7       	brne	.-12     	; 0xfa6 <initLCD+0x24>
	// Bootloader should have been executed before...
	setLCDD(0b0011);
	delayCycles(18000);
	setLCDD(0b0011);
	delayCycles(5500);
	setLCDD(0b0011);
     fb2:	83 e0       	ldi	r24, 0x03	; 3
     fb4:	0e 94 8a 07 	call	0xf14	; 0xf14 <setLCDD>
     fb8:	8c e7       	ldi	r24, 0x7C	; 124
     fba:	95 e1       	ldi	r25, 0x15	; 21
     fbc:	01 c0       	rjmp	.+2      	; 0xfc0 <initLCD+0x3e>
 * Example:
 * 	delayCycles(1000); // Delays for *about* 1000 instruction cycles
 */
void delayCycles(uint16_t dly)
{
	while(dly--) nop();
     fbe:	00 00       	nop
     fc0:	01 97       	sbiw	r24, 0x01	; 1
     fc2:	2f ef       	ldi	r18, 0xFF	; 255
     fc4:	8f 3f       	cpi	r24, 0xFF	; 255
     fc6:	92 07       	cpc	r25, r18
     fc8:	d1 f7       	brne	.-12     	; 0xfbe <initLCD+0x3c>
	delayCycles(18000);
	setLCDD(0b0011);
	delayCycles(5500);
	setLCDD(0b0011);
	delayCycles(5500);
	setLCDD(0b0010);
     fca:	82 e0       	ldi	r24, 0x02	; 2
     fcc:	0e 94 8a 07 	call	0xf14	; 0xf14 <setLCDD>
     fd0:	8c e7       	ldi	r24, 0x7C	; 124
     fd2:	95 e1       	ldi	r25, 0x15	; 21
     fd4:	01 c0       	rjmp	.+2      	; 0xfd8 <initLCD+0x56>
 * Example:
 * 	delayCycles(1000); // Delays for *about* 1000 instruction cycles
 */
void delayCycles(uint16_t dly)
{
	while(dly--) nop();
     fd6:	00 00       	nop
     fd8:	01 97       	sbiw	r24, 0x01	; 1
     fda:	2f ef       	ldi	r18, 0xFF	; 255
     fdc:	8f 3f       	cpi	r24, 0xFF	; 255
     fde:	92 07       	cpc	r25, r18
     fe0:	d1 f7       	brne	.-12     	; 0xfd6 <initLCD+0x54>
	delayCycles(5500);
	setLCDD(0b0011);
	delayCycles(5500);
	setLCDD(0b0010);
	delayCycles(5500);
	writeLCDCommand(0b00101000);
     fe2:	88 e2       	ldi	r24, 0x28	; 40
     fe4:	0e 94 b4 07 	call	0xf68	; 0xf68 <writeLCDCommand>
     fe8:	8c e7       	ldi	r24, 0x7C	; 124
     fea:	95 e1       	ldi	r25, 0x15	; 21
     fec:	01 c0       	rjmp	.+2      	; 0xff0 <initLCD+0x6e>
 * Example:
 * 	delayCycles(1000); // Delays for *about* 1000 instruction cycles
 */
void delayCycles(uint16_t dly)
{
	while(dly--) nop();
     fee:	00 00       	nop
     ff0:	01 97       	sbiw	r24, 0x01	; 1
     ff2:	2f ef       	ldi	r18, 0xFF	; 255
     ff4:	8f 3f       	cpi	r24, 0xFF	; 255
     ff6:	92 07       	cpc	r25, r18
     ff8:	d1 f7       	brne	.-12     	; 0xfee <initLCD+0x6c>
	delayCycles(5500);
	setLCDD(0b0010);
	delayCycles(5500);
	writeLCDCommand(0b00101000);
	delayCycles(5500);
	writeLCDCommand(0b00001000);
     ffa:	88 e0       	ldi	r24, 0x08	; 8
     ffc:	0e 94 b4 07 	call	0xf68	; 0xf68 <writeLCDCommand>
    1000:	8c e7       	ldi	r24, 0x7C	; 124
    1002:	95 e1       	ldi	r25, 0x15	; 21
    1004:	01 c0       	rjmp	.+2      	; 0x1008 <initLCD+0x86>
 * Example:
 * 	delayCycles(1000); // Delays for *about* 1000 instruction cycles
 */
void delayCycles(uint16_t dly)
{
	while(dly--) nop();
    1006:	00 00       	nop
    1008:	01 97       	sbiw	r24, 0x01	; 1
    100a:	2f ef       	ldi	r18, 0xFF	; 255
    100c:	8f 3f       	cpi	r24, 0xFF	; 255
    100e:	92 07       	cpc	r25, r18
    1010:	d1 f7       	brne	.-12     	; 0x1006 <initLCD+0x84>
	delayCycles(5500);
	writeLCDCommand(0b00101000);
	delayCycles(5500);
	writeLCDCommand(0b00001000);
	delayCycles(5500);
	writeLCDCommand(0b00000001);
    1012:	81 e0       	ldi	r24, 0x01	; 1
    1014:	0e 94 b4 07 	call	0xf68	; 0xf68 <writeLCDCommand>
    1018:	8c e7       	ldi	r24, 0x7C	; 124
    101a:	95 e1       	ldi	r25, 0x15	; 21
    101c:	01 c0       	rjmp	.+2      	; 0x1020 <initLCD+0x9e>
 * Example:
 * 	delayCycles(1000); // Delays for *about* 1000 instruction cycles
 */
void delayCycles(uint16_t dly)
{
	while(dly--) nop();
    101e:	00 00       	nop
    1020:	01 97       	sbiw	r24, 0x01	; 1
    1022:	2f ef       	ldi	r18, 0xFF	; 255
    1024:	8f 3f       	cpi	r24, 0xFF	; 255
    1026:	92 07       	cpc	r25, r18
    1028:	d1 f7       	brne	.-12     	; 0x101e <initLCD+0x9c>
	delayCycles(5500);
	writeLCDCommand(0b00001000);
	delayCycles(5500);
	writeLCDCommand(0b00000001);
	delayCycles(5500);
	writeLCDCommand(0b00000010);
    102a:	82 e0       	ldi	r24, 0x02	; 2
    102c:	0e 94 b4 07 	call	0xf68	; 0xf68 <writeLCDCommand>
    1030:	8c e7       	ldi	r24, 0x7C	; 124
    1032:	95 e1       	ldi	r25, 0x15	; 21
    1034:	01 c0       	rjmp	.+2      	; 0x1038 <initLCD+0xb6>
 * Example:
 * 	delayCycles(1000); // Delays for *about* 1000 instruction cycles
 */
void delayCycles(uint16_t dly)
{
	while(dly--) nop();
    1036:	00 00       	nop
    1038:	01 97       	sbiw	r24, 0x01	; 1
    103a:	2f ef       	ldi	r18, 0xFF	; 255
    103c:	8f 3f       	cpi	r24, 0xFF	; 255
    103e:	92 07       	cpc	r25, r18
    1040:	d1 f7       	brne	.-12     	; 0x1036 <initLCD+0xb4>
	delayCycles(5500);
	writeLCDCommand(0b00000001);
	delayCycles(5500);
	writeLCDCommand(0b00000010);
	delayCycles(5500);
	writeLCDCommand(0b00001100);
    1042:	8c e0       	ldi	r24, 0x0C	; 12
    1044:	0e 94 b4 07 	call	0xf68	; 0xf68 <writeLCDCommand>
    1048:	8c e7       	ldi	r24, 0x7C	; 124
    104a:	95 e1       	ldi	r25, 0x15	; 21
    104c:	01 c0       	rjmp	.+2      	; 0x1050 <initLCD+0xce>
 * Example:
 * 	delayCycles(1000); // Delays for *about* 1000 instruction cycles
 */
void delayCycles(uint16_t dly)
{
	while(dly--) nop();
    104e:	00 00       	nop
    1050:	01 97       	sbiw	r24, 0x01	; 1
    1052:	2f ef       	ldi	r18, 0xFF	; 255
    1054:	8f 3f       	cpi	r24, 0xFF	; 255
    1056:	92 07       	cpc	r25, r18
    1058:	d1 f7       	brne	.-12     	; 0x104e <initLCD+0xcc>
	delayCycles(5500);
	writeLCDCommand(0b00000010);
	delayCycles(5500);
	writeLCDCommand(0b00001100);
	delayCycles(5500);
}
    105a:	08 95       	ret

0000105c <clearLCD>:
/**
 * Clears the whole LCD!
 */
void clearLCD(void)
{
	writeLCDCommand(0b00000001);
    105c:	81 e0       	ldi	r24, 0x01	; 1
    105e:	0e 94 b4 07 	call	0xf68	; 0xf68 <writeLCDCommand>
    1062:	8c e7       	ldi	r24, 0x7C	; 124
    1064:	95 e1       	ldi	r25, 0x15	; 21
    1066:	01 c0       	rjmp	.+2      	; 0x106a <clearLCD+0xe>
 * Example:
 * 	delayCycles(1000); // Delays for *about* 1000 instruction cycles
 */
void delayCycles(uint16_t dly)
{
	while(dly--) nop();
    1068:	00 00       	nop
    106a:	01 97       	sbiw	r24, 0x01	; 1
    106c:	2f ef       	ldi	r18, 0xFF	; 255
    106e:	8f 3f       	cpi	r24, 0xFF	; 255
    1070:	92 07       	cpc	r25, r18
    1072:	d1 f7       	brne	.-12     	; 0x1068 <clearLCD+0xc>
 */
void clearLCD(void)
{
	writeLCDCommand(0b00000001);
	delayCycles(5500);
}
    1074:	08 95       	ret

00001076 <writeCharLCD>:
 *			use setCursorPos function to move the cursor to a 
 *			different location!
 */
void writeCharLCD(uint8_t ch)
{
	PORTB |= LCD_RS;
    1076:	c3 9a       	sbi	0x18, 3	; 24
	write4BitLCDData(ch);
    1078:	0e 94 a0 07 	call	0xf40	; 0xf40 <write4BitLCDData>
    107c:	82 e3       	ldi	r24, 0x32	; 50
    107e:	90 e0       	ldi	r25, 0x00	; 0
    1080:	01 c0       	rjmp	.+2      	; 0x1084 <writeCharLCD+0xe>
 * Example:
 * 	delayCycles(1000); // Delays for *about* 1000 instruction cycles
 */
void delayCycles(uint16_t dly)
{
	while(dly--) nop();
    1082:	00 00       	nop
    1084:	01 97       	sbiw	r24, 0x01	; 1
    1086:	2f ef       	ldi	r18, 0xFF	; 255
    1088:	8f 3f       	cpi	r24, 0xFF	; 255
    108a:	92 07       	cpc	r25, r18
    108c:	d1 f7       	brne	.-12     	; 0x1082 <writeCharLCD+0xc>
void writeCharLCD(uint8_t ch)
{
	PORTB |= LCD_RS;
	write4BitLCDData(ch);
	delayCycles(50);
}
    108e:	08 95       	ret

00001090 <writeNStringLCD_P>:
 *			// you can simply write:
 *			writeStringLCD_P("RP6 Control");
 *
 */
void writeNStringLCD_P(const char *pstring)
{
    1090:	cf 93       	push	r28
    1092:	df 93       	push	r29
    1094:	ec 01       	movw	r28, r24
    1096:	02 c0       	rjmp	.+4      	; 0x109c <writeNStringLCD_P+0xc>
    uint8_t c;
    for (;(c = pgm_read_byte_near(pstring++));writeCharLCD(c));
    1098:	0e 94 3b 08 	call	0x1076	; 0x1076 <writeCharLCD>
    109c:	fe 01       	movw	r30, r28
    109e:	21 96       	adiw	r28, 0x01	; 1
    10a0:	84 91       	lpm	r24, Z+
    10a2:	88 23       	and	r24, r24
    10a4:	c9 f7       	brne	.-14     	; 0x1098 <writeNStringLCD_P+0x8>
}
    10a6:	df 91       	pop	r29
    10a8:	cf 91       	pop	r28
    10aa:	08 95       	ret

000010ac <writeStringLCD>:

/**
 * Writes a String from SRAM to the LCD.
 */
void writeStringLCD(char *string)
{
    10ac:	cf 93       	push	r28
    10ae:	df 93       	push	r29
    10b0:	ec 01       	movw	r28, r24
    10b2:	03 c0       	rjmp	.+6      	; 0x10ba <writeStringLCD+0xe>
	while(*string)
		writeCharLCD(*string++);
    10b4:	21 96       	adiw	r28, 0x01	; 1
    10b6:	0e 94 3b 08 	call	0x1076	; 0x1076 <writeCharLCD>
/**
 * Writes a String from SRAM to the LCD.
 */
void writeStringLCD(char *string)
{
	while(*string)
    10ba:	88 81       	ld	r24, Y
    10bc:	88 23       	and	r24, r24
    10be:	d1 f7       	brne	.-12     	; 0x10b4 <writeStringLCD+0x8>
		writeCharLCD(*string++);
}
    10c0:	df 91       	pop	r29
    10c2:	cf 91       	pop	r28
    10c4:	08 95       	ret

000010c6 <writeStringLengthLCD>:
 *			// would output: "Robot System"
 *			// No matter if the specified length is 40 characters!
 *
 */
void writeStringLengthLCD(char *string, uint8_t length, uint8_t offset)
{
    10c6:	1f 93       	push	r17
    10c8:	cf 93       	push	r28
    10ca:	df 93       	push	r29
    10cc:	16 2f       	mov	r17, r22
	for(string = &string[offset]; *string && length; length--)
    10ce:	ec 01       	movw	r28, r24
    10d0:	c4 0f       	add	r28, r20
    10d2:	d1 1d       	adc	r29, r1
    10d4:	04 c0       	rjmp	.+8      	; 0x10de <writeStringLengthLCD+0x18>
		writeCharLCD(*string++);
    10d6:	21 96       	adiw	r28, 0x01	; 1
    10d8:	0e 94 3b 08 	call	0x1076	; 0x1076 <writeCharLCD>
 *			// No matter if the specified length is 40 characters!
 *
 */
void writeStringLengthLCD(char *string, uint8_t length, uint8_t offset)
{
	for(string = &string[offset]; *string && length; length--)
    10dc:	11 50       	subi	r17, 0x01	; 1
    10de:	88 81       	ld	r24, Y
    10e0:	88 23       	and	r24, r24
    10e2:	11 f0       	breq	.+4      	; 0x10e8 <writeStringLengthLCD+0x22>
    10e4:	11 23       	and	r17, r17
    10e6:	b9 f7       	brne	.-18     	; 0x10d6 <writeStringLengthLCD+0x10>
		writeCharLCD(*string++);
}
    10e8:	df 91       	pop	r29
    10ea:	cf 91       	pop	r28
    10ec:	1f 91       	pop	r17
    10ee:	08 95       	ret

000010f0 <setCursorPosLCD>:
/**
 * Sets the cursor position on LCD.
 */
void setCursorPosLCD(uint8_t line, uint8_t pos)
{
	pos |= 128;
    10f0:	60 68       	ori	r22, 0x80	; 128
	if(line==1) pos += 0x40;
    10f2:	81 30       	cpi	r24, 0x01	; 1
    10f4:	09 f4       	brne	.+2      	; 0x10f8 <setCursorPosLCD+0x8>
    10f6:	60 5c       	subi	r22, 0xC0	; 192
	writeLCDCommand(pos);
    10f8:	86 2f       	mov	r24, r22
    10fa:	0e 94 b4 07 	call	0xf68	; 0xf68 <writeLCDCommand>
}
    10fe:	08 95       	ret

00001100 <_showScreenLCD_P>:
 * This function is useful for displaying text screens on the LCD.
 * It clears the whole LCD and writes the two Strings to line 1 and
 * line 2.
 */
void _showScreenLCD_P(const char *line1, const char *line2)
{
    1100:	ef 92       	push	r14
    1102:	ff 92       	push	r15
    1104:	0f 93       	push	r16
    1106:	1f 93       	push	r17
    1108:	8c 01       	movw	r16, r24
    110a:	7b 01       	movw	r14, r22
	clearLCD();
    110c:	0e 94 2e 08 	call	0x105c	; 0x105c <clearLCD>
	writeNStringLCD_P(line1);
    1110:	c8 01       	movw	r24, r16
    1112:	0e 94 48 08 	call	0x1090	; 0x1090 <writeNStringLCD_P>
	setCursorPosLCD(1, 0);
    1116:	81 e0       	ldi	r24, 0x01	; 1
    1118:	60 e0       	ldi	r22, 0x00	; 0
    111a:	0e 94 78 08 	call	0x10f0	; 0x10f0 <setCursorPosLCD>
	writeNStringLCD_P(line2);
    111e:	c7 01       	movw	r24, r14
    1120:	0e 94 48 08 	call	0x1090	; 0x1090 <writeNStringLCD_P>
}
    1124:	1f 91       	pop	r17
    1126:	0f 91       	pop	r16
    1128:	ff 90       	pop	r15
    112a:	ef 90       	pop	r14
    112c:	08 95       	ret

0000112e <clearPosLCD>:

/**
 * Clears some characters after the given position.
 */
void clearPosLCD(uint8_t line, uint8_t pos, uint8_t length)
{
    112e:	1f 93       	push	r17
    1130:	14 2f       	mov	r17, r20
	setCursorPosLCD(line,pos);
    1132:	0e 94 78 08 	call	0x10f0	; 0x10f0 <setCursorPosLCD>
    1136:	04 c0       	rjmp	.+8      	; 0x1140 <clearPosLCD+0x12>
	while(length--)
		writeCharLCD(' ');
    1138:	80 e2       	ldi	r24, 0x20	; 32
    113a:	0e 94 3b 08 	call	0x1076	; 0x1076 <writeCharLCD>
    113e:	11 50       	subi	r17, 0x01	; 1
 * Clears some characters after the given position.
 */
void clearPosLCD(uint8_t line, uint8_t pos, uint8_t length)
{
	setCursorPosLCD(line,pos);
	while(length--)
    1140:	11 23       	and	r17, r17
    1142:	d1 f7       	brne	.-12     	; 0x1138 <clearPosLCD+0xa>
		writeCharLCD(' ');
}
    1144:	1f 91       	pop	r17
    1146:	08 95       	ret

00001148 <getPressedKeyNumber>:
 * Maybe you need to adjust these values because of variations
 * in the resitors of the keypad!
 *
 */
uint8_t getPressedKeyNumber(void)
{
    1148:	cf 93       	push	r28
    114a:	df 93       	push	r29
	uint16_t keys;
	keys = readADC(ADC_KEYPAD);
    114c:	81 e0       	ldi	r24, 0x01	; 1
    114e:	0e 94 a3 06 	call	0xd46	; 0xd46 <readADC>
    1152:	ec 01       	movw	r28, r24
	if(keys < 1020) {
    1154:	83 e0       	ldi	r24, 0x03	; 3
    1156:	cc 3f       	cpi	r28, 0xFC	; 252
    1158:	d8 07       	cpc	r29, r24
    115a:	78 f4       	brcc	.+30     	; 0x117a <getPressedKeyNumber+0x32>
		nop();
    115c:	00 00       	nop
		nop();
    115e:	00 00       	nop
		nop();
    1160:	00 00       	nop
		keys += readADC(ADC_KEYPAD);
    1162:	81 e0       	ldi	r24, 0x01	; 1
    1164:	0e 94 a3 06 	call	0xd46	; 0xd46 <readADC>
    1168:	c8 0f       	add	r28, r24
    116a:	d9 1f       	adc	r29, r25
		keys >>= 1;
    116c:	d6 95       	lsr	r29
    116e:	c7 95       	ror	r28
	}
	if(keys < 50)
    1170:	c2 33       	cpi	r28, 0x32	; 50
    1172:	d1 05       	cpc	r29, r1
    1174:	10 f4       	brcc	.+4      	; 0x117a <getPressedKeyNumber+0x32>
    1176:	81 e0       	ldi	r24, 0x01	; 1
    1178:	18 c0       	rjmp	.+48     	; 0x11aa <getPressedKeyNumber+0x62>
		return 1;
	if(keys < 580)
    117a:	82 e0       	ldi	r24, 0x02	; 2
    117c:	c4 34       	cpi	r28, 0x44	; 68
    117e:	d8 07       	cpc	r29, r24
    1180:	10 f4       	brcc	.+4      	; 0x1186 <getPressedKeyNumber+0x3e>
    1182:	82 e0       	ldi	r24, 0x02	; 2
    1184:	12 c0       	rjmp	.+36     	; 0x11aa <getPressedKeyNumber+0x62>
		return 2;
	if(keys < 700)
    1186:	82 e0       	ldi	r24, 0x02	; 2
    1188:	cc 3b       	cpi	r28, 0xBC	; 188
    118a:	d8 07       	cpc	r29, r24
    118c:	10 f4       	brcc	.+4      	; 0x1192 <getPressedKeyNumber+0x4a>
    118e:	83 e0       	ldi	r24, 0x03	; 3
    1190:	0c c0       	rjmp	.+24     	; 0x11aa <getPressedKeyNumber+0x62>
		return 3;
	if(keys < 790)
    1192:	83 e0       	ldi	r24, 0x03	; 3
    1194:	c6 31       	cpi	r28, 0x16	; 22
    1196:	d8 07       	cpc	r29, r24
    1198:	10 f4       	brcc	.+4      	; 0x119e <getPressedKeyNumber+0x56>
    119a:	84 e0       	ldi	r24, 0x04	; 4
    119c:	06 c0       	rjmp	.+12     	; 0x11aa <getPressedKeyNumber+0x62>
		return 4;
	if(keys < 830)
    119e:	ce 53       	subi	r28, 0x3E	; 62
    11a0:	d3 40       	sbci	r29, 0x03	; 3
    11a2:	10 f0       	brcs	.+4      	; 0x11a8 <getPressedKeyNumber+0x60>
    11a4:	80 e0       	ldi	r24, 0x00	; 0
    11a6:	01 c0       	rjmp	.+2      	; 0x11aa <getPressedKeyNumber+0x62>
    11a8:	85 e0       	ldi	r24, 0x05	; 5
		return 5;
	return 0;
}
    11aa:	df 91       	pop	r29
    11ac:	cf 91       	pop	r28
    11ae:	08 95       	ret

000011b0 <checkPressedKeyEvent>:
 * to be released again!
 */
uint8_t checkPressedKeyEvent(void)
{
	static uint8_t pressed_key = 0;
	if(pressed_key) {
    11b0:	80 91 67 02 	lds	r24, 0x0267
    11b4:	88 23       	and	r24, r24
    11b6:	41 f0       	breq	.+16     	; 0x11c8 <checkPressedKeyEvent+0x18>
		if(!getPressedKeyNumber()) 
    11b8:	0e 94 a4 08 	call	0x1148	; 0x1148 <getPressedKeyNumber>
    11bc:	88 23       	and	r24, r24
    11be:	11 f4       	brne	.+4      	; 0x11c4 <checkPressedKeyEvent+0x14>
			pressed_key = 0;
    11c0:	10 92 67 02 	sts	0x0267, r1
    11c4:	80 e0       	ldi	r24, 0x00	; 0
    11c6:	08 95       	ret
	}
	else {
		pressed_key = getPressedKeyNumber();
    11c8:	0e 94 a4 08 	call	0x1148	; 0x1148 <getPressedKeyNumber>
    11cc:	80 93 67 02 	sts	0x0267, r24
		if(pressed_key)
			return pressed_key;
	}
	return 0;
}
    11d0:	08 95       	ret

000011d2 <checkReleasedKeyEvent>:
 * main loop. You don't need something like 
 * "while(getPressedKeyNumber());" to wait for the button
 * to be released again!
 */
uint8_t checkReleasedKeyEvent(void)
{
    11d2:	1f 93       	push	r17
	static uint8_t released_key = 0;
	if(released_key) {
    11d4:	10 91 66 02 	lds	r17, 0x0266
    11d8:	11 23       	and	r17, r17
    11da:	49 f0       	breq	.+18     	; 0x11ee <checkReleasedKeyEvent+0x1c>
		if(!getPressedKeyNumber()) {
    11dc:	0e 94 a4 08 	call	0x1148	; 0x1148 <getPressedKeyNumber>
    11e0:	88 23       	and	r24, r24
    11e2:	11 f0       	breq	.+4      	; 0x11e8 <checkReleasedKeyEvent+0x16>
    11e4:	10 e0       	ldi	r17, 0x00	; 0
    11e6:	07 c0       	rjmp	.+14     	; 0x11f6 <checkReleasedKeyEvent+0x24>
			uint8_t tmp = released_key;
			released_key = 0;
    11e8:	10 92 66 02 	sts	0x0266, r1
    11ec:	04 c0       	rjmp	.+8      	; 0x11f6 <checkReleasedKeyEvent+0x24>
			return tmp;
		}
	}
	else
		released_key = getPressedKeyNumber();
    11ee:	0e 94 a4 08 	call	0x1148	; 0x1148 <getPressedKeyNumber>
    11f2:	80 93 66 02 	sts	0x0266, r24
	return 0;
}
    11f6:	81 2f       	mov	r24, r17
    11f8:	1f 91       	pop	r17
    11fa:	08 95       	ret

000011fc <dischargePeakDetector>:
 * used for the Microphone. This is required to remove any previous
 * charge from the capacitor. 
 */
void dischargePeakDetector(void)
{
	DDRA |= MIC;
    11fc:	d0 9a       	sbi	0x1a, 0	; 26
	PORTA &= ~MIC;
    11fe:	d8 98       	cbi	0x1b, 0	; 27
    1200:	21 e0       	ldi	r18, 0x01	; 1
    1202:	30 e0       	ldi	r19, 0x00	; 0
    1204:	07 c0       	rjmp	.+14     	; 0x1214 <dischargePeakDetector+0x18>
 *		// The maximum delay is:
 *		sleep(255); // delay 255 * 100us = 25500us = 25.5ms
 */
void sleep(uint8_t time)
{
	delay_timer = 0;
    1206:	10 92 15 03 	sts	0x0315, r1
	while (delay_timer <= time+1);
    120a:	80 91 15 03 	lds	r24, 0x0315
    120e:	90 e0       	ldi	r25, 0x00	; 0
    1210:	0c 97       	sbiw	r24, 0x0c	; 12
    1212:	dc f3       	brlt	.-10     	; 0x120a <dischargePeakDetector+0xe>
 *		mSleep(1000); // delay 1000 * 1ms = 1000ms = 1s
 *
 */
void mSleep(uint16_t time)
{
	while (time--) sleep(10);
    1214:	21 50       	subi	r18, 0x01	; 1
    1216:	30 40       	sbci	r19, 0x00	; 0
    1218:	8f ef       	ldi	r24, 0xFF	; 255
    121a:	2f 3f       	cpi	r18, 0xFF	; 255
    121c:	38 07       	cpc	r19, r24
    121e:	99 f7       	brne	.-26     	; 0x1206 <dischargePeakDetector+0xa>
void dischargePeakDetector(void)
{
	DDRA |= MIC;
	PORTA &= ~MIC;
	mSleep(1);
	DDRA &= ~MIC;
    1220:	d0 98       	cbi	0x1a, 0	; 26
}
    1222:	08 95       	ret

00001224 <getMicrophonePeak>:
/**
 * Reads the Microphone peak detector and discharges it afterwards.
 * 
 */
uint16_t getMicrophonePeak(void)
{
    1224:	cf 93       	push	r28
    1226:	df 93       	push	r29
	uint16_t tmp;
	tmp = readADC(ADC_MIC);
    1228:	80 e0       	ldi	r24, 0x00	; 0
    122a:	0e 94 a3 06 	call	0xd46	; 0xd46 <readADC>
    122e:	ec 01       	movw	r28, r24
	if(tmp > 4) 
    1230:	85 30       	cpi	r24, 0x05	; 5
    1232:	91 05       	cpc	r25, r1
    1234:	10 f0       	brcs	.+4      	; 0x123a <getMicrophonePeak+0x16>
		dischargePeakDetector();
    1236:	0e 94 fe 08 	call	0x11fc	; 0x11fc <dischargePeakDetector>
	return tmp;
}
    123a:	ce 01       	movw	r24, r28
    123c:	df 91       	pop	r29
    123e:	cf 91       	pop	r28
    1240:	08 95       	ret

00001242 <__vector_10>:
 *
 * By default, it runs at 10kHz which means this ISR is called
 * every ~100s! This is nice for timing stuff!
 */
ISR (TIMER0_COMP_vect)
{
    1242:	1f 92       	push	r1
    1244:	0f 92       	push	r0
    1246:	0f b6       	in	r0, 0x3f	; 63
    1248:	0f 92       	push	r0
    124a:	11 24       	eor	r1, r1
    124c:	8f 93       	push	r24
    124e:	9f 93       	push	r25
	// 16bit timer (100s resolution)
	timer++;
    1250:	80 91 e2 02 	lds	r24, 0x02E2
    1254:	90 91 e3 02 	lds	r25, 0x02E3
    1258:	01 96       	adiw	r24, 0x01	; 1
    125a:	90 93 e3 02 	sts	0x02E3, r25
    125e:	80 93 e2 02 	sts	0x02E2, r24
	
	// Blocking delay (100s):
	delay_timer++;
    1262:	80 91 15 03 	lds	r24, 0x0315
    1266:	8f 5f       	subi	r24, 0xFF	; 255
    1268:	80 93 15 03 	sts	0x0315, r24
	
	// All 1ms based timing stuff
	if(ms_timer++ >= 9) { // 10 * 100s = 1ms, >= 9 because 0..9 = 10 counts
    126c:	80 91 16 03 	lds	r24, 0x0316
    1270:	8f 5f       	subi	r24, 0xFF	; 255
    1272:	80 93 16 03 	sts	0x0316, r24
    1276:	81 50       	subi	r24, 0x01	; 1
    1278:	89 30       	cpi	r24, 0x09	; 9
    127a:	08 f4       	brcc	.+2      	; 0x127e <__vector_10+0x3c>
    127c:	84 c0       	rjmp	.+264    	; 0x1386 <__vector_10+0x144>
		// 16bit Stopwatches:
		if(stopwatches.watches & STOPWATCH1)
    127e:	80 91 03 03 	lds	r24, 0x0303
    1282:	80 ff       	sbrs	r24, 0
    1284:	09 c0       	rjmp	.+18     	; 0x1298 <__vector_10+0x56>
			stopwatches.watch1++;
    1286:	80 91 04 03 	lds	r24, 0x0304
    128a:	90 91 05 03 	lds	r25, 0x0305
    128e:	01 96       	adiw	r24, 0x01	; 1
    1290:	90 93 05 03 	sts	0x0305, r25
    1294:	80 93 04 03 	sts	0x0304, r24
		if(stopwatches.watches & STOPWATCH2)
    1298:	80 91 03 03 	lds	r24, 0x0303
    129c:	81 ff       	sbrs	r24, 1
    129e:	09 c0       	rjmp	.+18     	; 0x12b2 <__vector_10+0x70>
			stopwatches.watch2++;
    12a0:	80 91 06 03 	lds	r24, 0x0306
    12a4:	90 91 07 03 	lds	r25, 0x0307
    12a8:	01 96       	adiw	r24, 0x01	; 1
    12aa:	90 93 07 03 	sts	0x0307, r25
    12ae:	80 93 06 03 	sts	0x0306, r24
		if(stopwatches.watches & STOPWATCH3)
    12b2:	80 91 03 03 	lds	r24, 0x0303
    12b6:	82 ff       	sbrs	r24, 2
    12b8:	09 c0       	rjmp	.+18     	; 0x12cc <__vector_10+0x8a>
			stopwatches.watch3++;
    12ba:	80 91 08 03 	lds	r24, 0x0308
    12be:	90 91 09 03 	lds	r25, 0x0309
    12c2:	01 96       	adiw	r24, 0x01	; 1
    12c4:	90 93 09 03 	sts	0x0309, r25
    12c8:	80 93 08 03 	sts	0x0308, r24
		if(stopwatches.watches & STOPWATCH4)
    12cc:	80 91 03 03 	lds	r24, 0x0303
    12d0:	83 ff       	sbrs	r24, 3
    12d2:	09 c0       	rjmp	.+18     	; 0x12e6 <__vector_10+0xa4>
			stopwatches.watch4++;
    12d4:	80 91 0a 03 	lds	r24, 0x030A
    12d8:	90 91 0b 03 	lds	r25, 0x030B
    12dc:	01 96       	adiw	r24, 0x01	; 1
    12de:	90 93 0b 03 	sts	0x030B, r25
    12e2:	80 93 0a 03 	sts	0x030A, r24
		if(stopwatches.watches & STOPWATCH5)
    12e6:	80 91 03 03 	lds	r24, 0x0303
    12ea:	84 ff       	sbrs	r24, 4
    12ec:	09 c0       	rjmp	.+18     	; 0x1300 <__vector_10+0xbe>
			stopwatches.watch5++;
    12ee:	80 91 0c 03 	lds	r24, 0x030C
    12f2:	90 91 0d 03 	lds	r25, 0x030D
    12f6:	01 96       	adiw	r24, 0x01	; 1
    12f8:	90 93 0d 03 	sts	0x030D, r25
    12fc:	80 93 0c 03 	sts	0x030C, r24
		if(stopwatches.watches & STOPWATCH6)
    1300:	80 91 03 03 	lds	r24, 0x0303
    1304:	85 ff       	sbrs	r24, 5
    1306:	09 c0       	rjmp	.+18     	; 0x131a <__vector_10+0xd8>
			stopwatches.watch6++;
    1308:	80 91 0e 03 	lds	r24, 0x030E
    130c:	90 91 0f 03 	lds	r25, 0x030F
    1310:	01 96       	adiw	r24, 0x01	; 1
    1312:	90 93 0f 03 	sts	0x030F, r25
    1316:	80 93 0e 03 	sts	0x030E, r24
		if(stopwatches.watches & STOPWATCH7)
    131a:	80 91 03 03 	lds	r24, 0x0303
    131e:	86 ff       	sbrs	r24, 6
    1320:	09 c0       	rjmp	.+18     	; 0x1334 <__vector_10+0xf2>
			stopwatches.watch7++;
    1322:	80 91 10 03 	lds	r24, 0x0310
    1326:	90 91 11 03 	lds	r25, 0x0311
    132a:	01 96       	adiw	r24, 0x01	; 1
    132c:	90 93 11 03 	sts	0x0311, r25
    1330:	80 93 10 03 	sts	0x0310, r24
		if(stopwatches.watches & STOPWATCH8)
    1334:	80 91 03 03 	lds	r24, 0x0303
    1338:	87 ff       	sbrs	r24, 7
    133a:	09 c0       	rjmp	.+18     	; 0x134e <__vector_10+0x10c>
			stopwatches.watch8++;
    133c:	80 91 12 03 	lds	r24, 0x0312
    1340:	90 91 13 03 	lds	r25, 0x0313
    1344:	01 96       	adiw	r24, 0x01	; 1
    1346:	90 93 13 03 	sts	0x0313, r25
    134a:	80 93 12 03 	sts	0x0312, r24

		// Sound generation timing:
		if(controlStatus.beep) {
    134e:	80 91 f1 02 	lds	r24, 0x02F1
    1352:	80 ff       	sbrs	r24, 0
    1354:	16 c0       	rjmp	.+44     	; 0x1382 <__vector_10+0x140>
			if(sound_timer < 1) { // sound_timer * 1ms
    1356:	80 91 17 03 	lds	r24, 0x0317
    135a:	90 91 18 03 	lds	r25, 0x0318
    135e:	89 2b       	or	r24, r25
    1360:	39 f4       	brne	.+14     	; 0x1370 <__vector_10+0x12e>
				TCCR2 = 0;
    1362:	15 bc       	out	0x25, r1	; 37
				controlStatus.beep = false;
    1364:	80 91 f1 02 	lds	r24, 0x02F1
    1368:	8e 7f       	andi	r24, 0xFE	; 254
    136a:	80 93 f1 02 	sts	0x02F1, r24
    136e:	09 c0       	rjmp	.+18     	; 0x1382 <__vector_10+0x140>
			}
			else
				sound_timer--;
    1370:	80 91 17 03 	lds	r24, 0x0317
    1374:	90 91 18 03 	lds	r25, 0x0318
    1378:	01 97       	sbiw	r24, 0x01	; 1
    137a:	90 93 18 03 	sts	0x0318, r25
    137e:	80 93 17 03 	sts	0x0317, r24
		}
		
		ms_timer = 0;
    1382:	10 92 16 03 	sts	0x0316, r1
	}
}
    1386:	9f 91       	pop	r25
    1388:	8f 91       	pop	r24
    138a:	0f 90       	pop	r0
    138c:	0f be       	out	0x3f, r0	; 63
    138e:	0f 90       	pop	r0
    1390:	1f 90       	pop	r1
    1392:	18 95       	reti

00001394 <beep>:
 * sounds when you need to do other things at the same
 * time... 
 */
void beep(uint8_t pitch, uint16_t time)
{
	controlStatus.beep = true;
    1394:	90 91 f1 02 	lds	r25, 0x02F1
    1398:	91 60       	ori	r25, 0x01	; 1
    139a:	90 93 f1 02 	sts	0x02F1, r25
	sound_timer = time;
    139e:	70 93 18 03 	sts	0x0318, r23
    13a2:	60 93 17 03 	sts	0x0317, r22
	OCR2 = 255-pitch;
    13a6:	80 95       	com	r24
    13a8:	83 bd       	out	0x23, r24	; 35
	TCCR2 =  (1 << WGM21) | (1 << COM20) | (1 << CS22) | (1 << CS21);
    13aa:	8e e1       	ldi	r24, 0x1E	; 30
    13ac:	85 bd       	out	0x25, r24	; 37
}
    13ae:	08 95       	ret

000013b0 <setBeeperPitch>:
 * would sound bad if the beeper turns of for a very short time
 * in between - such as alarm tones or special melodies etc. 
 */
void setBeeperPitch(uint8_t pitch)
{
	controlStatus.beep = false;
    13b0:	90 91 f1 02 	lds	r25, 0x02F1
    13b4:	9e 7f       	andi	r25, 0xFE	; 254
    13b6:	90 93 f1 02 	sts	0x02F1, r25
	OCR2 = 255-pitch;
    13ba:	98 2f       	mov	r25, r24
    13bc:	90 95       	com	r25
    13be:	93 bd       	out	0x23, r25	; 35
	if(pitch) 
    13c0:	88 23       	and	r24, r24
    13c2:	19 f0       	breq	.+6      	; 0x13ca <setBeeperPitch+0x1a>
		TCCR2 =  (1 << WGM21) | (1 << COM20) | (1 << CS22) | (1 << CS21);	
    13c4:	8e e1       	ldi	r24, 0x1E	; 30
    13c6:	85 bd       	out	0x25, r24	; 37
    13c8:	08 95       	ret
	else 
		TCCR2 = 0;
    13ca:	15 bc       	out	0x25, r1	; 37
    13cc:	08 95       	ret

000013ce <sleep>:
 *		// The maximum delay is:
 *		sleep(255); // delay 255 * 100us = 25500us = 25.5ms
 */
void sleep(uint8_t time)
{
	delay_timer = 0;
    13ce:	10 92 15 03 	sts	0x0315, r1
	while (delay_timer <= time+1);
    13d2:	28 2f       	mov	r18, r24
    13d4:	30 e0       	ldi	r19, 0x00	; 0
    13d6:	2f 5f       	subi	r18, 0xFF	; 255
    13d8:	3f 4f       	sbci	r19, 0xFF	; 255
    13da:	80 91 15 03 	lds	r24, 0x0315
    13de:	90 e0       	ldi	r25, 0x00	; 0
    13e0:	28 17       	cp	r18, r24
    13e2:	39 07       	cpc	r19, r25
    13e4:	d4 f7       	brge	.-12     	; 0x13da <sleep+0xc>
}
    13e6:	08 95       	ret

000013e8 <mSleep>:
 *      mSleep(100); // delay 100 * 1ms = 100ms = 0.1s
 *		mSleep(1000); // delay 1000 * 1ms = 1000ms = 1s
 *
 */
void mSleep(uint16_t time)
{
    13e8:	9c 01       	movw	r18, r24
    13ea:	09 c0       	rjmp	.+18     	; 0x13fe <mSleep+0x16>
 *		// The maximum delay is:
 *		sleep(255); // delay 255 * 100us = 25500us = 25.5ms
 */
void sleep(uint8_t time)
{
	delay_timer = 0;
    13ec:	10 92 15 03 	sts	0x0315, r1
	while (delay_timer <= time+1);
    13f0:	80 91 15 03 	lds	r24, 0x0315
    13f4:	90 e0       	ldi	r25, 0x00	; 0
    13f6:	0c 97       	sbiw	r24, 0x0c	; 12
    13f8:	dc f3       	brlt	.-10     	; 0x13f0 <mSleep+0x8>
    13fa:	21 50       	subi	r18, 0x01	; 1
    13fc:	30 40       	sbci	r19, 0x00	; 0
 *		mSleep(1000); // delay 1000 * 1ms = 1000ms = 1s
 *
 */
void mSleep(uint16_t time)
{
	while (time--) sleep(10);
    13fe:	21 15       	cp	r18, r1
    1400:	31 05       	cpc	r19, r1
    1402:	a1 f7       	brne	.-24     	; 0x13ec <mSleep+0x4>
}
    1404:	08 95       	ret

00001406 <delayCycles>:
 *
 * Example:
 * 	delayCycles(1000); // Delays for *about* 1000 instruction cycles
 */
void delayCycles(uint16_t dly)
{
    1406:	02 c0       	rjmp	.+4      	; 0x140c <delayCycles+0x6>
	while(dly--) nop();
    1408:	00 00       	nop
    140a:	01 97       	sbiw	r24, 0x01	; 1
    140c:	00 97       	sbiw	r24, 0x00	; 0
    140e:	e1 f7       	brne	.-8      	; 0x1408 <delayCycles+0x2>
}
    1410:	08 95       	ret

00001412 <initRP6Control>:
 *			}
 *
 */
void initRP6Control(void)
{
	portInit();		// Setup port directions and initial values.
    1412:	1b ba       	out	0x1b, r1	; 27
    1414:	87 e0       	ldi	r24, 0x07	; 7
    1416:	88 bb       	out	0x18, r24	; 24
    1418:	8c ef       	ldi	r24, 0xFC	; 252
    141a:	85 bb       	out	0x15, r24	; 21
    141c:	81 e6       	ldi	r24, 0x61	; 97
    141e:	82 bb       	out	0x12, r24	; 18
    1420:	1a ba       	out	0x1a, r1	; 26
    1422:	8b eb       	ldi	r24, 0xBB	; 187
    1424:	87 bb       	out	0x17, r24	; 23
    1426:	14 ba       	out	0x14, r1	; 20
    1428:	82 e9       	ldi	r24, 0x92	; 146
    142a:	81 bb       	out	0x11, r24	; 17
					// This is the most important step!

	cli();			// Disable global interrupts.
    142c:	f8 94       	cli

	// UART:
	UBRRH = UBRR_BAUD_LOW >> 8;	// Setup UART: Baud is Low Speed
    142e:	10 bc       	out	0x20, r1	; 32
	UBRRL = (uint8_t) UBRR_BAUD_LOW;
    1430:	89 e1       	ldi	r24, 0x19	; 25
    1432:	89 b9       	out	0x09, r24	; 9
	UCSRA = 0x00;
    1434:	1b b8       	out	0x0b, r1	; 11
    UCSRC = (1<<URSEL)|(1<<UCSZ1)|(1<<UCSZ0);
    1436:	86 e8       	ldi	r24, 0x86	; 134
    1438:	80 bd       	out	0x20, r24	; 32
    UCSRB = (1 << TXEN) | (1 << RXEN) | (1 << RXCIE);
    143a:	88 e9       	ldi	r24, 0x98	; 152
    143c:	8a b9       	out	0x0a, r24	; 10
	
	// Initialize ADC:
	ADMUX = 0; //external reference 
    143e:	17 b8       	out	0x07, r1	; 7
	ADCSRA = (0<<ADIE) | (0<<ADEN) | (1<<ADPS2) | (1<<ADPS1) | (1<<ADIF);
    1440:	86 e1       	ldi	r24, 0x16	; 22
    1442:	86 b9       	out	0x06, r24	; 6
	SFIOR = 0;
    1444:	10 be       	out	0x30, r1	; 48

	// Initialize External interrupts - all disabled:
	MCUCR = (1 << ISC11) | (1 << ISC10) | (1 << ISC01) | (1 << ISC00);
    1446:	8f e0       	ldi	r24, 0x0F	; 15
    1448:	85 bf       	out	0x35, r24	; 53
	GICR = (0 << INT2) | (0 << INT1) | (0 << INT0);
    144a:	1b be       	out	0x3b, r1	; 59
	MCUCSR = (0 << ISC2);
    144c:	14 be       	out	0x34, r1	; 52
	
	
	// 10kHz Timer 0:
	TCCR0 =   (0 << WGM00) 
    144e:	8a e0       	ldi	r24, 0x0A	; 10
    1450:	83 bf       	out	0x33, r24	; 51
			| (0 << COM00) 
			| (0 << COM01) 
			| (0 << CS02)  
			| (1 << CS01) 
			| (0 << CS00);
	OCR0  = 199;
    1452:	87 ec       	ldi	r24, 0xC7	; 199
    1454:	8c bf       	out	0x3c, r24	; 60
/*
	Timer 1 is free for your application!
*/

	// Timer 2 - used for beeper:
	TCCR2 =  0; 
    1456:	15 bc       	out	0x25, r1	; 37
	OCR2  = 0xFF; 
    1458:	8f ef       	ldi	r24, 0xFF	; 255
    145a:	83 bd       	out	0x23, r24	; 35

	// Enable timer interrupts:
	TIMSK =   (1 << OCIE0); 
    145c:	82 e0       	ldi	r24, 0x02	; 2
    145e:	89 bf       	out	0x39, r24	; 57

	// SPI Master (SPI Mode 0, SCK Frequency is F_CPU/2, which means it is 8MHz 
	// on the RP6 CONTROL M32...):
	SPCR =    (0<<SPIE) 
    1460:	80 e5       	ldi	r24, 0x50	; 80
    1462:	8d b9       	out	0x0d, r24	; 13
			| (1<<MSTR) 
			| (0<<SPR0) 
			| (0<<SPR1) 
			| (0<<CPOL) 
			| (0<<CPHA);  
	SPSR = (1<<SPI2X);
    1464:	81 e0       	ldi	r24, 0x01	; 1
    1466:	8e b9       	out	0x0e, r24	; 14
	
	sei(); // Enable Global Interrupts
    1468:	78 94       	sei
}
    146a:	08 95       	ret

0000146c <writeIntegerLCD>:
 *			writeInteger(1024,DEC);  	// Decimal
 *			writeInteger(511,OCT);		// Ocal
 *			writeInteger(0b11010111,BIN); // Binary
 */
void writeIntegerLCD(int16_t number, uint8_t base)
{
    146c:	0f 93       	push	r16
    146e:	1f 93       	push	r17
    1470:	46 2f       	mov	r20, r22
	itoa(number, &lcd_tmp_buffer[0], base);
    1472:	02 ef       	ldi	r16, 0xF2	; 242
    1474:	12 e0       	ldi	r17, 0x02	; 2
    1476:	b8 01       	movw	r22, r16
    1478:	50 e0       	ldi	r21, 0x00	; 0
    147a:	0e 94 ba 1e 	call	0x3d74	; 0x3d74 <itoa>
	writeStringLCD(&lcd_tmp_buffer[0]);
    147e:	c8 01       	movw	r24, r16
    1480:	0e 94 56 08 	call	0x10ac	; 0x10ac <writeStringLCD>
}
    1484:	1f 91       	pop	r17
    1486:	0f 91       	pop	r16
    1488:	08 95       	ret

0000148a <writeIntegerLengthLCD>:
 *			writeIntegerLength(511,OCT,4);		// Ocal
 *			writeIntegerLength(0b11010111,BIN,8); // Binary
 */
 
void writeIntegerLengthLCD(int16_t number, uint8_t base, uint8_t length)
{
    148a:	ef 92       	push	r14
    148c:	ff 92       	push	r15
    148e:	0f 93       	push	r16
    1490:	1f 93       	push	r17
    1492:	df 93       	push	r29
    1494:	cf 93       	push	r28
    1496:	cd b7       	in	r28, 0x3d	; 61
    1498:	de b7       	in	r29, 0x3e	; 62
    149a:	61 97       	sbiw	r28, 0x11	; 17
    149c:	0f b6       	in	r0, 0x3f	; 63
    149e:	f8 94       	cli
    14a0:	de bf       	out	0x3e, r29	; 62
    14a2:	0f be       	out	0x3f, r0	; 63
    14a4:	cd bf       	out	0x3d, r28	; 61
    14a6:	26 2f       	mov	r18, r22
    14a8:	04 2f       	mov	r16, r20
	char buffer[17];
	itoa(number, &buffer[0], base);
    14aa:	7e 01       	movw	r14, r28
    14ac:	08 94       	sec
    14ae:	e1 1c       	adc	r14, r1
    14b0:	f1 1c       	adc	r15, r1
    14b2:	b7 01       	movw	r22, r14
    14b4:	42 2f       	mov	r20, r18
    14b6:	50 e0       	ldi	r21, 0x00	; 0
    14b8:	0e 94 ba 1e 	call	0x3d74	; 0x3d74 <itoa>
	int8_t cnt = length - strlen(buffer);
    14bc:	f7 01       	movw	r30, r14
    14be:	01 90       	ld	r0, Z+
    14c0:	00 20       	and	r0, r0
    14c2:	e9 f7       	brne	.-6      	; 0x14be <writeIntegerLengthLCD+0x34>
    14c4:	31 97       	sbiw	r30, 0x01	; 1
    14c6:	ee 19       	sub	r30, r14
    14c8:	ff 09       	sbc	r31, r15
    14ca:	10 2f       	mov	r17, r16
    14cc:	1e 1b       	sub	r17, r30
	if(cnt > 0) {
    14ce:	11 16       	cp	r1, r17
    14d0:	5c f4       	brge	.+22     	; 0x14e8 <writeIntegerLengthLCD+0x5e>
		for(; cnt > 0; cnt--, writeCharLCD('0'));
    14d2:	11 50       	subi	r17, 0x01	; 1
    14d4:	80 e3       	ldi	r24, 0x30	; 48
    14d6:	0e 94 3b 08 	call	0x1076	; 0x1076 <writeCharLCD>
    14da:	11 23       	and	r17, r17
    14dc:	d1 f7       	brne	.-12     	; 0x14d2 <writeIntegerLengthLCD+0x48>
		writeStringLCD(&buffer[0]);
    14de:	ce 01       	movw	r24, r28
    14e0:	01 96       	adiw	r24, 0x01	; 1
    14e2:	0e 94 56 08 	call	0x10ac	; 0x10ac <writeStringLCD>
    14e6:	06 c0       	rjmp	.+12     	; 0x14f4 <writeIntegerLengthLCD+0x6a>
	}
	else 
		writeStringLengthLCD(&buffer[0],length,-cnt);
    14e8:	11 95       	neg	r17
    14ea:	c7 01       	movw	r24, r14
    14ec:	60 2f       	mov	r22, r16
    14ee:	41 2f       	mov	r20, r17
    14f0:	0e 94 63 08 	call	0x10c6	; 0x10c6 <writeStringLengthLCD>
}
    14f4:	61 96       	adiw	r28, 0x11	; 17
    14f6:	0f b6       	in	r0, 0x3f	; 63
    14f8:	f8 94       	cli
    14fa:	de bf       	out	0x3e, r29	; 62
    14fc:	0f be       	out	0x3f, r0	; 63
    14fe:	cd bf       	out	0x3d, r28	; 61
    1500:	cf 91       	pop	r28
    1502:	df 91       	pop	r29
    1504:	1f 91       	pop	r17
    1506:	0f 91       	pop	r16
    1508:	ff 90       	pop	r15
    150a:	ef 90       	pop	r14
    150c:	08 95       	ret

0000150e <writeChar>:
 *			00123
 *
 */
void writeChar(char ch)
{
    while (!(UCSRA & (1<<UDRE)));
    150e:	5d 9b       	sbis	0x0b, 5	; 11
    1510:	fe cf       	rjmp	.-4      	; 0x150e <writeChar>
    UDR = (uint8_t)ch;
    1512:	8c b9       	out	0x0c, r24	; 12
}
    1514:	08 95       	ret

00001516 <writeString>:
 *
 *			writeString("RP6 Robot System\n");
 *
 */
void writeString(char *string)
{
    1516:	fc 01       	movw	r30, r24
    1518:	04 c0       	rjmp	.+8      	; 0x1522 <writeString+0xc>
 *			00123
 *
 */
void writeChar(char ch)
{
    while (!(UCSRA & (1<<UDRE)));
    151a:	5d 9b       	sbis	0x0b, 5	; 11
    151c:	fe cf       	rjmp	.-4      	; 0x151a <writeString+0x4>
 *
 */
void writeString(char *string)
{
	while(*string)
		writeChar(*string++);
    151e:	31 96       	adiw	r30, 0x01	; 1
 *
 */
void writeChar(char ch)
{
    while (!(UCSRA & (1<<UDRE)));
    UDR = (uint8_t)ch;
    1520:	8c b9       	out	0x0c, r24	; 12
 *			writeString("RP6 Robot System\n");
 *
 */
void writeString(char *string)
{
	while(*string)
    1522:	80 81       	ld	r24, Z
    1524:	88 23       	and	r24, r24
    1526:	c9 f7       	brne	.-14     	; 0x151a <writeString+0x4>
		writeChar(*string++);
}
    1528:	08 95       	ret

0000152a <writeNStringP>:
 *			// you can simply write:
 *			writeString_P("RP6 Robot System\n");
 *
 */
void writeNStringP(const char *pstring)
{
    152a:	03 c0       	rjmp	.+6      	; 0x1532 <writeNStringP+0x8>
 *			00123
 *
 */
void writeChar(char ch)
{
    while (!(UCSRA & (1<<UDRE)));
    152c:	5d 9b       	sbis	0x0b, 5	; 11
    152e:	fe cf       	rjmp	.-4      	; 0x152c <writeNStringP+0x2>
    UDR = (uint8_t)ch;
    1530:	2c b9       	out	0x0c, r18	; 12
    1532:	fc 01       	movw	r30, r24
 *
 */
void writeNStringP(const char *pstring)
{
    uint8_t c;
    for (;(c = pgm_read_byte_near(pstring++));writeChar(c));
    1534:	01 96       	adiw	r24, 0x01	; 1
    1536:	24 91       	lpm	r18, Z+
    1538:	22 23       	and	r18, r18
    153a:	c1 f7       	brne	.-16     	; 0x152c <writeNStringP+0x2>
}
    153c:	08 95       	ret

0000153e <writeStringLength>:
 *			// No matter if the specified length is 40 characters!
 *
 */
void writeStringLength(char *string, uint8_t length, uint8_t offset)
{
	for(string = &string[offset]; *string && length; length--)
    153e:	fc 01       	movw	r30, r24
    1540:	e4 0f       	add	r30, r20
    1542:	f1 1d       	adc	r31, r1
    1544:	05 c0       	rjmp	.+10     	; 0x1550 <writeStringLength+0x12>
 *			00123
 *
 */
void writeChar(char ch)
{
    while (!(UCSRA & (1<<UDRE)));
    1546:	5d 9b       	sbis	0x0b, 5	; 11
    1548:	fe cf       	rjmp	.-4      	; 0x1546 <writeStringLength+0x8>
 *
 */
void writeStringLength(char *string, uint8_t length, uint8_t offset)
{
	for(string = &string[offset]; *string && length; length--)
		writeChar(*string++);
    154a:	31 96       	adiw	r30, 0x01	; 1
 *
 */
void writeChar(char ch)
{
    while (!(UCSRA & (1<<UDRE)));
    UDR = (uint8_t)ch;
    154c:	8c b9       	out	0x0c, r24	; 12
 *			// No matter if the specified length is 40 characters!
 *
 */
void writeStringLength(char *string, uint8_t length, uint8_t offset)
{
	for(string = &string[offset]; *string && length; length--)
    154e:	61 50       	subi	r22, 0x01	; 1
    1550:	80 81       	ld	r24, Z
    1552:	88 23       	and	r24, r24
    1554:	11 f0       	breq	.+4      	; 0x155a <writeStringLength+0x1c>
    1556:	66 23       	and	r22, r22
    1558:	b1 f7       	brne	.-20     	; 0x1546 <writeStringLength+0x8>
    155a:	08 95       	ret

0000155c <__vector_13>:
/**
 * UART receive ISR.
 * Handles reception to circular buffer.
 */
ISR(USART_RXC_vect)
{	
    155c:	1f 92       	push	r1
    155e:	0f 92       	push	r0
    1560:	0f b6       	in	r0, 0x3f	; 63
    1562:	0f 92       	push	r0
    1564:	11 24       	eor	r1, r1
    1566:	2f 93       	push	r18
    1568:	8f 93       	push	r24
    156a:	9f 93       	push	r25
    156c:	ef 93       	push	r30
    156e:	ff 93       	push	r31
	static volatile uint8_t dummy;
	if(((uint8_t)(write_size - read_size)) < UART_RECEIVE_BUFFER_SIZE) {
    1570:	20 91 6b 02 	lds	r18, 0x026B
    1574:	80 91 6a 02 	lds	r24, 0x026A
    1578:	92 2f       	mov	r25, r18
    157a:	98 1b       	sub	r25, r24
    157c:	90 32       	cpi	r25, 0x20	; 32
    157e:	a8 f4       	brcc	.+42     	; 0x15aa <__vector_13+0x4e>
		uart_receive_buffer[write_pos++] = UDR;
    1580:	80 91 69 02 	lds	r24, 0x0269
    1584:	e8 2f       	mov	r30, r24
    1586:	f0 e0       	ldi	r31, 0x00	; 0
    1588:	9c b1       	in	r25, 0x0c	; 12
    158a:	e6 5e       	subi	r30, 0xE6	; 230
    158c:	fc 4f       	sbci	r31, 0xFC	; 252
    158e:	90 83       	st	Z, r25
    1590:	8f 5f       	subi	r24, 0xFF	; 255
    1592:	80 93 69 02 	sts	0x0269, r24
		write_size++;
    1596:	2f 5f       	subi	r18, 0xFF	; 255
    1598:	20 93 6b 02 	sts	0x026B, r18
		if(write_pos > UART_RECEIVE_BUFFER_SIZE) 
    159c:	81 32       	cpi	r24, 0x21	; 33
    159e:	10 f0       	brcs	.+4      	; 0x15a4 <__vector_13+0x48>
			write_pos = 0;
    15a0:	10 92 69 02 	sts	0x0269, r1
		uart_status = UART_BUFFER_OK;
    15a4:	10 92 19 03 	sts	0x0319, r1
    15a8:	06 c0       	rjmp	.+12     	; 0x15b6 <__vector_13+0x5a>
	}
	else {	
		dummy = UDR;
    15aa:	8c b1       	in	r24, 0x0c	; 12
    15ac:	80 93 6d 02 	sts	0x026D, r24
		uart_status = UART_BUFFER_OVERFLOW;
    15b0:	81 e0       	ldi	r24, 0x01	; 1
    15b2:	80 93 19 03 	sts	0x0319, r24
	}
}
    15b6:	ff 91       	pop	r31
    15b8:	ef 91       	pop	r30
    15ba:	9f 91       	pop	r25
    15bc:	8f 91       	pop	r24
    15be:	2f 91       	pop	r18
    15c0:	0f 90       	pop	r0
    15c2:	0f be       	out	0x3f, r0	; 63
    15c4:	0f 90       	pop	r0
    15c6:	1f 90       	pop	r1
    15c8:	18 95       	reti

000015ca <readChar>:
 * // [...]
 *
 */
char readChar(void)
{
	uart_status = UART_BUFFER_OK;
    15ca:	10 92 19 03 	sts	0x0319, r1
	if(((uint8_t)(write_size - read_size)) > 0) {
    15ce:	90 91 6a 02 	lds	r25, 0x026A
    15d2:	80 91 6b 02 	lds	r24, 0x026B
    15d6:	89 17       	cp	r24, r25
    15d8:	11 f4       	brne	.+4      	; 0x15de <readChar+0x14>
    15da:	e0 e0       	ldi	r30, 0x00	; 0
    15dc:	13 c0       	rjmp	.+38     	; 0x1604 <readChar+0x3a>
		read_size++;
    15de:	9f 5f       	subi	r25, 0xFF	; 255
    15e0:	90 93 6a 02 	sts	0x026A, r25
		if(read_pos > UART_RECEIVE_BUFFER_SIZE) 
    15e4:	80 91 68 02 	lds	r24, 0x0268
    15e8:	81 32       	cpi	r24, 0x21	; 33
    15ea:	10 f0       	brcs	.+4      	; 0x15f0 <readChar+0x26>
			read_pos = 0;
    15ec:	10 92 68 02 	sts	0x0268, r1
		return uart_receive_buffer[read_pos++];
    15f0:	80 91 68 02 	lds	r24, 0x0268
    15f4:	e8 2f       	mov	r30, r24
    15f6:	f0 e0       	ldi	r31, 0x00	; 0
    15f8:	e6 5e       	subi	r30, 0xE6	; 230
    15fa:	fc 4f       	sbci	r31, 0xFC	; 252
    15fc:	e0 81       	ld	r30, Z
    15fe:	8f 5f       	subi	r24, 0xFF	; 255
    1600:	80 93 68 02 	sts	0x0268, r24
	}
	return 0;
}
    1604:	8e 2f       	mov	r24, r30
    1606:	08 95       	ret

00001608 <readChars>:
 * Just in case that there were fewer chars in the buffer...
 */
uint8_t readChars(char *buf, uint8_t numberOfChars)
{
   uint8_t i = 0;
   uart_status = UART_BUFFER_OK;
    1608:	10 92 19 03 	sts	0x0319, r1
    160c:	dc 01       	movw	r26, r24
    160e:	20 e0       	ldi	r18, 0x00	; 0
    1610:	14 c0       	rjmp	.+40     	; 0x163a <readChars+0x32>
   while(((uint8_t)(write_size - read_size))  > 0 && i < numberOfChars) {
      read_size++;
    1612:	9f 5f       	subi	r25, 0xFF	; 255
    1614:	90 93 6a 02 	sts	0x026A, r25
      buf[i++] = uart_receive_buffer[read_pos++];
    1618:	80 91 68 02 	lds	r24, 0x0268
    161c:	e8 2f       	mov	r30, r24
    161e:	f0 e0       	ldi	r31, 0x00	; 0
    1620:	e6 5e       	subi	r30, 0xE6	; 230
    1622:	fc 4f       	sbci	r31, 0xFC	; 252
    1624:	90 81       	ld	r25, Z
    1626:	9c 93       	st	X, r25
    1628:	8f 5f       	subi	r24, 0xFF	; 255
    162a:	80 93 68 02 	sts	0x0268, r24
      if(read_pos > UART_RECEIVE_BUFFER_SIZE)
    162e:	81 32       	cpi	r24, 0x21	; 33
    1630:	10 f0       	brcs	.+4      	; 0x1636 <readChars+0x2e>
         read_pos = 0;
    1632:	10 92 68 02 	sts	0x0268, r1
{
   uint8_t i = 0;
   uart_status = UART_BUFFER_OK;
   while(((uint8_t)(write_size - read_size))  > 0 && i < numberOfChars) {
      read_size++;
      buf[i++] = uart_receive_buffer[read_pos++];
    1636:	2f 5f       	subi	r18, 0xFF	; 255
    1638:	11 96       	adiw	r26, 0x01	; 1
 */
uint8_t readChars(char *buf, uint8_t numberOfChars)
{
   uint8_t i = 0;
   uart_status = UART_BUFFER_OK;
   while(((uint8_t)(write_size - read_size))  > 0 && i < numberOfChars) {
    163a:	90 91 6a 02 	lds	r25, 0x026A
    163e:	80 91 6b 02 	lds	r24, 0x026B
    1642:	89 17       	cp	r24, r25
    1644:	11 f0       	breq	.+4      	; 0x164a <readChars+0x42>
    1646:	26 17       	cp	r18, r22
    1648:	20 f3       	brcs	.-56     	; 0x1612 <readChars+0xa>
      buf[i++] = uart_receive_buffer[read_pos++];
      if(read_pos > UART_RECEIVE_BUFFER_SIZE)
         read_pos = 0;
   }
   return i;
} 
    164a:	82 2f       	mov	r24, r18
    164c:	08 95       	ret

0000164e <getBufferLength>:
 *
 * Example:
 * s. readChar function above!
 */
uint8_t getBufferLength(void)
{
    164e:	80 91 6b 02 	lds	r24, 0x026B
    1652:	90 91 6a 02 	lds	r25, 0x026A
	return (((uint8_t)(write_size - read_size)));
}
    1656:	89 1b       	sub	r24, r25
    1658:	08 95       	ret

0000165a <clearReceptionBuffer>:
 * interrupt for a short period of time. 
 */
void clearReceptionBuffer(void)
{
	static uint8_t dummy;
	UCSRB &= ~(1 << RXCIE); // disable UART RX Interrupt
    165a:	57 98       	cbi	0x0a, 7	; 10
	dummy = UDR;
    165c:	8c b1       	in	r24, 0x0c	; 12
    165e:	80 93 6c 02 	sts	0x026C, r24
	read_pos = 0;
    1662:	10 92 68 02 	sts	0x0268, r1
	write_pos = 0; 
    1666:	10 92 69 02 	sts	0x0269, r1
	read_size = 0;
    166a:	10 92 6a 02 	sts	0x026A, r1
	write_size = 0;
    166e:	10 92 6b 02 	sts	0x026B, r1
	uart_status = UART_BUFFER_OK;
    1672:	10 92 19 03 	sts	0x0319, r1
	UCSRB |= (1 << RXCIE); // enable Interrupt again
    1676:	57 9a       	sbi	0x0a, 7	; 10
}
    1678:	08 95       	ret

0000167a <writeInteger>:
 *			writeInteger(1024,DEC);  	// Decimal
 *			writeInteger(044,OCT);		// Ocal
 *			writeInteger(0b11010111,BIN); // Binary
 */
void writeInteger(int16_t number, uint8_t base)
{
    167a:	0f 93       	push	r16
    167c:	1f 93       	push	r17
    167e:	df 93       	push	r29
    1680:	cf 93       	push	r28
    1682:	cd b7       	in	r28, 0x3d	; 61
    1684:	de b7       	in	r29, 0x3e	; 62
    1686:	61 97       	sbiw	r28, 0x11	; 17
    1688:	0f b6       	in	r0, 0x3f	; 63
    168a:	f8 94       	cli
    168c:	de bf       	out	0x3e, r29	; 62
    168e:	0f be       	out	0x3f, r0	; 63
    1690:	cd bf       	out	0x3d, r28	; 61
    1692:	46 2f       	mov	r20, r22
	char buffer[17];
	itoa(number, &buffer[0], base);
    1694:	8e 01       	movw	r16, r28
    1696:	0f 5f       	subi	r16, 0xFF	; 255
    1698:	1f 4f       	sbci	r17, 0xFF	; 255
    169a:	b8 01       	movw	r22, r16
    169c:	50 e0       	ldi	r21, 0x00	; 0
    169e:	0e 94 ba 1e 	call	0x3d74	; 0x3d74 <itoa>
	writeString(&buffer[0]);
    16a2:	c8 01       	movw	r24, r16
    16a4:	0e 94 8b 0a 	call	0x1516	; 0x1516 <writeString>
}
    16a8:	61 96       	adiw	r28, 0x11	; 17
    16aa:	0f b6       	in	r0, 0x3f	; 63
    16ac:	f8 94       	cli
    16ae:	de bf       	out	0x3e, r29	; 62
    16b0:	0f be       	out	0x3f, r0	; 63
    16b2:	cd bf       	out	0x3d, r28	; 61
    16b4:	cf 91       	pop	r28
    16b6:	df 91       	pop	r29
    16b8:	1f 91       	pop	r17
    16ba:	0f 91       	pop	r16
    16bc:	08 95       	ret

000016be <writeIntegerLength>:
 *			writeIntegerLength(1024,DEC,6);  	// Decimal
 *			writeIntegerLength(044,OCT,4);		// Ocal
 *			writeIntegerLength(0b11010111,BIN,8); // Binary
 */
void writeIntegerLength(int16_t number, uint8_t base, uint8_t length)
{
    16be:	ff 92       	push	r15
    16c0:	0f 93       	push	r16
    16c2:	1f 93       	push	r17
    16c4:	df 93       	push	r29
    16c6:	cf 93       	push	r28
    16c8:	cd b7       	in	r28, 0x3d	; 61
    16ca:	de b7       	in	r29, 0x3e	; 62
    16cc:	61 97       	sbiw	r28, 0x11	; 17
    16ce:	0f b6       	in	r0, 0x3f	; 63
    16d0:	f8 94       	cli
    16d2:	de bf       	out	0x3e, r29	; 62
    16d4:	0f be       	out	0x3f, r0	; 63
    16d6:	cd bf       	out	0x3d, r28	; 61
    16d8:	26 2f       	mov	r18, r22
    16da:	f4 2e       	mov	r15, r20
	char buffer[17];
	itoa(number, &buffer[0], base);
    16dc:	8e 01       	movw	r16, r28
    16de:	0f 5f       	subi	r16, 0xFF	; 255
    16e0:	1f 4f       	sbci	r17, 0xFF	; 255
    16e2:	b8 01       	movw	r22, r16
    16e4:	42 2f       	mov	r20, r18
    16e6:	50 e0       	ldi	r21, 0x00	; 0
    16e8:	0e 94 ba 1e 	call	0x3d74	; 0x3d74 <itoa>
	int8_t cnt = length - strlen(buffer);
    16ec:	f8 01       	movw	r30, r16
    16ee:	01 90       	ld	r0, Z+
    16f0:	00 20       	and	r0, r0
    16f2:	e9 f7       	brne	.-6      	; 0x16ee <writeIntegerLength+0x30>
    16f4:	31 97       	sbiw	r30, 0x01	; 1
    16f6:	e0 1b       	sub	r30, r16
    16f8:	f1 0b       	sbc	r31, r17
    16fa:	4f 2d       	mov	r20, r15
    16fc:	4e 1b       	sub	r20, r30
	if(cnt > 0) {
    16fe:	14 16       	cp	r1, r20
    1700:	64 f4       	brge	.+24     	; 0x171a <writeIntegerLength+0x5c>
 *
 */
void writeChar(char ch)
{
    while (!(UCSRA & (1<<UDRE)));
    UDR = (uint8_t)ch;
    1702:	80 e3       	ldi	r24, 0x30	; 48
{
	char buffer[17];
	itoa(number, &buffer[0], base);
	int8_t cnt = length - strlen(buffer);
	if(cnt > 0) {
		for(; cnt > 0; cnt--, writeChar('0'));
    1704:	41 50       	subi	r20, 0x01	; 1
 *			00123
 *
 */
void writeChar(char ch)
{
    while (!(UCSRA & (1<<UDRE)));
    1706:	5d 9b       	sbis	0x0b, 5	; 11
    1708:	fe cf       	rjmp	.-4      	; 0x1706 <writeIntegerLength+0x48>
    UDR = (uint8_t)ch;
    170a:	8c b9       	out	0x0c, r24	; 12
{
	char buffer[17];
	itoa(number, &buffer[0], base);
	int8_t cnt = length - strlen(buffer);
	if(cnt > 0) {
		for(; cnt > 0; cnt--, writeChar('0'));
    170c:	44 23       	and	r20, r20
    170e:	d1 f7       	brne	.-12     	; 0x1704 <writeIntegerLength+0x46>
		writeString(&buffer[0]);
    1710:	ce 01       	movw	r24, r28
    1712:	01 96       	adiw	r24, 0x01	; 1
    1714:	0e 94 8b 0a 	call	0x1516	; 0x1516 <writeString>
    1718:	05 c0       	rjmp	.+10     	; 0x1724 <writeIntegerLength+0x66>
	}
	else 
		writeStringLength(&buffer[0],length,-cnt);
    171a:	41 95       	neg	r20
    171c:	c8 01       	movw	r24, r16
    171e:	6f 2d       	mov	r22, r15
    1720:	0e 94 9f 0a 	call	0x153e	; 0x153e <writeStringLength>
}
    1724:	61 96       	adiw	r28, 0x11	; 17
    1726:	0f b6       	in	r0, 0x3f	; 63
    1728:	f8 94       	cli
    172a:	de bf       	out	0x3e, r29	; 62
    172c:	0f be       	out	0x3f, r0	; 63
    172e:	cd bf       	out	0x3d, r28	; 61
    1730:	cf 91       	pop	r28
    1732:	df 91       	pop	r29
    1734:	1f 91       	pop	r17
    1736:	0f 91       	pop	r16
    1738:	ff 90       	pop	r15
    173a:	08 95       	ret

0000173c <__I2CTWI_initMaster>:
 * 							// but directly calculated with the formula in the
 *							// MEGA32 datasheet.
 */
void __I2CTWI_initMaster(uint8_t twi_bitrate)
{
	cli();
    173c:	f8 94       	cli
	TWBR = twi_bitrate;
    173e:	80 b9       	out	0x00, r24	; 0
	TWSR = 0x00;      // DO NOT USE PRESCALER! Otherwise you need to mask the
    1740:	11 b8       	out	0x01, r1	; 1
	TWDR = 0xFF;      // TWSR Prescaler bits everywhere TWSR is read!  	      
    1742:	8f ef       	ldi	r24, 0xFF	; 255
    1744:	83 b9       	out	0x03, r24	; 3
	TWCR = (1<<TWEN);
    1746:	84 e0       	ldi	r24, 0x04	; 4
    1748:	86 bf       	out	0x36, r24	; 54
	TWI_statusReg.lastTransOK = 1;
    174a:	80 91 6e 02 	lds	r24, 0x026E
    174e:	81 60       	ori	r24, 0x01	; 1
    1750:	80 93 6e 02 	sts	0x026E, r24
    sei();                      
    1754:	78 94       	sei
}
    1756:	08 95       	ret

00001758 <I2CTWI_requestedDataReady_DUMMY>:

/*****************************************************************************/
// TWI Event handlers
// These functions are used to receive Data or react on errors.

void I2CTWI_requestedDataReady_DUMMY(uint8_t requestID){}
    1758:	08 95       	ret

0000175a <I2CTWI_setRequestedDataReadyHandler>:
static void (*I2CTWI_requestedDataReadyHandler)(uint8_t) = I2CTWI_requestedDataReady_DUMMY;
void I2CTWI_setRequestedDataReadyHandler(void (*requestedDataReadyHandler)(uint8_t))
{
	I2CTWI_requestedDataReadyHandler = requestedDataReadyHandler;
    175a:	90 93 c4 00 	sts	0x00C4, r25
    175e:	80 93 c3 00 	sts	0x00C3, r24
}
    1762:	08 95       	ret

00001764 <I2CTWI_transmissionError_DUMMY>:

void I2CTWI_transmissionError_DUMMY(uint8_t requestID){}
    1764:	08 95       	ret

00001766 <I2CTWI_setTransmissionErrorHandler>:
static void (*I2CTWI_transmissionErrorHandler)(uint8_t) = I2CTWI_transmissionError_DUMMY;
void I2CTWI_setTransmissionErrorHandler(void (*transmissionErrorHandler)(uint8_t))
{
	I2CTWI_transmissionErrorHandler = transmissionErrorHandler;
    1766:	90 93 c6 00 	sts	0x00C6, r25
    176a:	80 93 c5 00 	sts	0x00C5, r24
}
    176e:	08 95       	ret

00001770 <I2CTWI_delay>:
/**
 * A small delay that is required between some transfers. Without this delay
 * the transmission may fail.
 */
void I2CTWI_delay(void)
{
    1770:	df 93       	push	r29
    1772:	cf 93       	push	r28
    1774:	0f 92       	push	r0
    1776:	cd b7       	in	r28, 0x3d	; 61
    1778:	de b7       	in	r29, 0x3e	; 62
	volatile uint8_t dly = 150;
    177a:	86 e9       	ldi	r24, 0x96	; 150
    177c:	89 83       	std	Y+1, r24	; 0x01
	while(dly--);
    177e:	89 81       	ldd	r24, Y+1	; 0x01
    1780:	81 50       	subi	r24, 0x01	; 1
    1782:	89 83       	std	Y+1, r24	; 0x01
    1784:	8f 5f       	subi	r24, 0xFF	; 255
    1786:	d9 f7       	brne	.-10     	; 0x177e <I2CTWI_delay+0xe>
}
    1788:	0f 90       	pop	r0
    178a:	cf 91       	pop	r28
    178c:	df 91       	pop	r29
    178e:	08 95       	ret

00001790 <task_I2CTWI>:
/**
 * You have to call this functions frequently out of the
 * main loop. It calls the event handlers above automatically if data has been received.
 */
void task_I2CTWI(void)
{
    1790:	df 93       	push	r29
    1792:	cf 93       	push	r28
    1794:	0f 92       	push	r0
    1796:	cd b7       	in	r28, 0x3d	; 61
    1798:	de b7       	in	r29, 0x3e	; 62
	if (!I2CTWI_isBusy()) {
    179a:	06 b6       	in	r0, 0x36	; 54
    179c:	00 fc       	sbrc	r0, 0
    179e:	6e c0       	rjmp	.+220    	; 0x187c <task_I2CTWI+0xec>
		if (TWI_statusReg.lastTransOK) {
    17a0:	80 91 6e 02 	lds	r24, 0x026E
    17a4:	80 ff       	sbrs	r24, 0
    17a6:	4e c0       	rjmp	.+156    	; 0x1844 <task_I2CTWI+0xb4>
			if(TWI_operation) {
    17a8:	80 91 75 02 	lds	r24, 0x0275
    17ac:	88 23       	and	r24, r24
    17ae:	09 f4       	brne	.+2      	; 0x17b2 <task_I2CTWI+0x22>
    17b0:	65 c0       	rjmp	.+202    	; 0x187c <task_I2CTWI+0xec>
				if(TWI_operation == I2CTWI_SEND_REGISTER) {
    17b2:	81 30       	cpi	r24, 0x01	; 1
    17b4:	c9 f4       	brne	.+50     	; 0x17e8 <task_I2CTWI+0x58>
 * A small delay that is required between some transfers. Without this delay
 * the transmission may fail.
 */
void I2CTWI_delay(void)
{
	volatile uint8_t dly = 150;
    17b6:	86 e9       	ldi	r24, 0x96	; 150
    17b8:	89 83       	std	Y+1, r24	; 0x01
	while(dly--);
    17ba:	89 81       	ldd	r24, Y+1	; 0x01
    17bc:	81 50       	subi	r24, 0x01	; 1
    17be:	89 83       	std	Y+1, r24	; 0x01
    17c0:	8f 5f       	subi	r24, 0xFF	; 255
    17c2:	d9 f7       	brne	.-10     	; 0x17ba <task_I2CTWI+0x2a>
	if (!I2CTWI_isBusy()) {
		if (TWI_statusReg.lastTransOK) {
			if(TWI_operation) {
				if(TWI_operation == I2CTWI_SEND_REGISTER) {
					I2CTWI_delay();
					TWI_msgSize = 2;
    17c4:	92 e0       	ldi	r25, 0x02	; 2
    17c6:	90 93 b7 02 	sts	0x02B7, r25
					I2CTWI_buf[0] = I2CTWI_request_adr;
    17ca:	80 91 70 02 	lds	r24, 0x0270
    17ce:	80 93 77 02 	sts	0x0277, r24
					I2CTWI_buf[1] = I2CTWI_request_reg;
    17d2:	80 91 71 02 	lds	r24, 0x0271
    17d6:	80 93 78 02 	sts	0x0278, r24
					TWI_statusReg.all = 0;
    17da:	10 92 6e 02 	sts	0x026E, r1
					TWCR = (1<<TWEN)|(1<<TWIE)|(1<<TWINT)|(0<<TWEA)|(1<<TWSTA)|(0<<TWSTO);
    17de:	85 ea       	ldi	r24, 0xA5	; 165
    17e0:	86 bf       	out	0x36, r24	; 54
					TWI_operation = I2CTWI_REQUEST_BYTES;
    17e2:	90 93 75 02 	sts	0x0275, r25
    17e6:	4a c0       	rjmp	.+148    	; 0x187c <task_I2CTWI+0xec>
				}
				else if (TWI_operation == I2CTWI_REQUEST_BYTES) {
    17e8:	82 30       	cpi	r24, 0x02	; 2
    17ea:	d9 f4       	brne	.+54     	; 0x1822 <task_I2CTWI+0x92>
 * A small delay that is required between some transfers. Without this delay
 * the transmission may fail.
 */
void I2CTWI_delay(void)
{
	volatile uint8_t dly = 150;
    17ec:	86 e9       	ldi	r24, 0x96	; 150
    17ee:	89 83       	std	Y+1, r24	; 0x01
	while(dly--);
    17f0:	89 81       	ldd	r24, Y+1	; 0x01
    17f2:	81 50       	subi	r24, 0x01	; 1
    17f4:	89 83       	std	Y+1, r24	; 0x01
    17f6:	8f 5f       	subi	r24, 0xFF	; 255
    17f8:	d9 f7       	brne	.-10     	; 0x17f0 <task_I2CTWI+0x60>
					TWCR = (1<<TWEN)|(1<<TWIE)|(1<<TWINT)|(0<<TWEA)|(1<<TWSTA)|(0<<TWSTO);
					TWI_operation = I2CTWI_REQUEST_BYTES;
				}
				else if (TWI_operation == I2CTWI_REQUEST_BYTES) {
					I2CTWI_delay();
					TWI_msgSize = I2CTWI_request_size + 1;
    17fa:	80 91 72 02 	lds	r24, 0x0272
    17fe:	8f 5f       	subi	r24, 0xFF	; 255
    1800:	80 93 b7 02 	sts	0x02B7, r24
					I2CTWI_request_adr = I2CTWI_request_adr | TWI_READ;
    1804:	80 91 70 02 	lds	r24, 0x0270
    1808:	81 60       	ori	r24, 0x01	; 1
    180a:	80 93 70 02 	sts	0x0270, r24
					I2CTWI_buf[0]  = I2CTWI_request_adr | TWI_READ; 
    180e:	80 93 77 02 	sts	0x0277, r24
					TWI_statusReg.all = 0;
    1812:	10 92 6e 02 	sts	0x026E, r1
					TWCR = (1<<TWEN)|(1<<TWIE)|(1<<TWINT)|(0<<TWEA)|(1<<TWSTA)|(0<<TWSTO);	
    1816:	85 ea       	ldi	r24, 0xA5	; 165
    1818:	86 bf       	out	0x36, r24	; 54
					TWI_operation = I2CTWI_READ_BYTES_FROM_BUFFER;
    181a:	83 e0       	ldi	r24, 0x03	; 3
    181c:	80 93 75 02 	sts	0x0275, r24
    1820:	2d c0       	rjmp	.+90     	; 0x187c <task_I2CTWI+0xec>
				}
				else if (TWI_operation == I2CTWI_READ_BYTES_FROM_BUFFER) { 
    1822:	83 30       	cpi	r24, 0x03	; 3
    1824:	59 f5       	brne	.+86     	; 0x187c <task_I2CTWI+0xec>
					TWI_operation = I2CTWI_NO_OPERATION;
    1826:	10 92 75 02 	sts	0x0275, r1
					if(I2CTWI_requestID!=-1)
    182a:	80 91 73 02 	lds	r24, 0x0273
    182e:	90 91 74 02 	lds	r25, 0x0274
    1832:	2f ef       	ldi	r18, 0xFF	; 255
    1834:	8f 3f       	cpi	r24, 0xFF	; 255
    1836:	92 07       	cpc	r25, r18
    1838:	09 f1       	breq	.+66     	; 0x187c <task_I2CTWI+0xec>
						I2CTWI_requestedDataReadyHandler(I2CTWI_requestID);
    183a:	e0 91 c3 00 	lds	r30, 0x00C3
    183e:	f0 91 c4 00 	lds	r31, 0x00C4
    1842:	1b c0       	rjmp	.+54     	; 0x187a <task_I2CTWI+0xea>
 * This function returns the last TWI State / Error State. It waits until
 * TWI Module has completed last operation! 
 */
uint8_t I2CTWI_getState(void)
{
	while(I2CTWI_isBusy()); // Wait until TWI has completed the transmission.
    1844:	06 b6       	in	r0, 0x36	; 54
    1846:	00 fc       	sbrc	r0, 0
    1848:	fd cf       	rjmp	.-6      	; 0x1844 <task_I2CTWI+0xb4>
	return (TWI_TWSR_state); // Return error state.
    184a:	90 91 6f 02 	lds	r25, 0x026F
				}
			}
		}
		else {
			uint8_t errState = I2CTWI_getState();
			if(errState != 0) {
    184e:	99 23       	and	r25, r25
    1850:	a9 f0       	breq	.+42     	; 0x187c <task_I2CTWI+0xec>
				TWI_operation = I2CTWI_NO_OPERATION;
    1852:	10 92 75 02 	sts	0x0275, r1
				TWI_statusReg.lastTransOK = 1;
    1856:	80 91 6e 02 	lds	r24, 0x026E
    185a:	81 60       	ori	r24, 0x01	; 1
    185c:	80 93 6e 02 	sts	0x026E, r24
				I2CTWI_request_adr = 0;
    1860:	10 92 70 02 	sts	0x0270, r1
				I2CTWI_requestID = 0;
    1864:	10 92 74 02 	sts	0x0274, r1
    1868:	10 92 73 02 	sts	0x0273, r1
				I2CTWI_request_size = 0;
    186c:	10 92 72 02 	sts	0x0272, r1
				I2CTWI_transmissionErrorHandler(errState);
    1870:	e0 91 c5 00 	lds	r30, 0x00C5
    1874:	f0 91 c6 00 	lds	r31, 0x00C6
    1878:	89 2f       	mov	r24, r25
    187a:	09 95       	icall
			}
		}
	}
}
    187c:	0f 90       	pop	r0
    187e:	cf 91       	pop	r28
    1880:	df 91       	pop	r29
    1882:	08 95       	ret

00001884 <I2CTWI_requestDataFromDevice>:
 * Requests a number of Bytes from the target device. You need to set a requestID 
 * to be able to identify the request after the data has been received and the 
 * "requestedDataReady" event handler is called.
 */
void I2CTWI_requestDataFromDevice(uint8_t targetAdr, uint8_t requestID, uint8_t numberOfBytes)
{	
    1884:	ff 92       	push	r15
    1886:	0f 93       	push	r16
    1888:	1f 93       	push	r17
    188a:	18 2f       	mov	r17, r24
    188c:	06 2f       	mov	r16, r22
    188e:	f4 2e       	mov	r15, r20
    1890:	02 c0       	rjmp	.+4      	; 0x1896 <I2CTWI_requestDataFromDevice+0x12>
	while(I2CTWI_isBusy() || TWI_operation != I2CTWI_NO_OPERATION) task_I2CTWI();
    1892:	0e 94 c8 0b 	call	0x1790	; 0x1790 <task_I2CTWI>
    1896:	06 b6       	in	r0, 0x36	; 54
    1898:	00 fc       	sbrc	r0, 0
    189a:	fb cf       	rjmp	.-10     	; 0x1892 <I2CTWI_requestDataFromDevice+0xe>
    189c:	80 91 75 02 	lds	r24, 0x0275
    18a0:	88 23       	and	r24, r24
    18a2:	b9 f7       	brne	.-18     	; 0x1892 <I2CTWI_requestDataFromDevice+0xe>
	TWI_operation = I2CTWI_REQUEST_BYTES;
    18a4:	82 e0       	ldi	r24, 0x02	; 2
    18a6:	80 93 75 02 	sts	0x0275, r24
	I2CTWI_request_adr = targetAdr;
    18aa:	10 93 70 02 	sts	0x0270, r17
	I2CTWI_requestID = (int16_t)requestID;
    18ae:	00 93 73 02 	sts	0x0273, r16
    18b2:	10 92 74 02 	sts	0x0274, r1
	I2CTWI_request_size = numberOfBytes;
    18b6:	f0 92 72 02 	sts	0x0272, r15
}
    18ba:	1f 91       	pop	r17
    18bc:	0f 91       	pop	r16
    18be:	ff 90       	pop	r15
    18c0:	08 95       	ret

000018c2 <I2CTWI_requestRegisterFromDevice>:
 * that has to be read and transmits the register number before! 
 * This is neccessary for the reaction on interrupt requests of slave devices as this
 * function is non-blocking and thus very well suited for calls directly from ISRs. 
 */
void I2CTWI_requestRegisterFromDevice(uint8_t targetAdr, uint8_t requestID, uint8_t reg, uint8_t numberOfBytes)
{	
    18c2:	ef 92       	push	r14
    18c4:	ff 92       	push	r15
    18c6:	0f 93       	push	r16
    18c8:	1f 93       	push	r17
    18ca:	e8 2e       	mov	r14, r24
    18cc:	16 2f       	mov	r17, r22
    18ce:	04 2f       	mov	r16, r20
    18d0:	f2 2e       	mov	r15, r18
    18d2:	02 c0       	rjmp	.+4      	; 0x18d8 <I2CTWI_requestRegisterFromDevice+0x16>
	while(I2CTWI_isBusy() || TWI_operation != I2CTWI_NO_OPERATION) task_I2CTWI();
    18d4:	0e 94 c8 0b 	call	0x1790	; 0x1790 <task_I2CTWI>
    18d8:	06 b6       	in	r0, 0x36	; 54
    18da:	00 fc       	sbrc	r0, 0
    18dc:	fb cf       	rjmp	.-10     	; 0x18d4 <I2CTWI_requestRegisterFromDevice+0x12>
    18de:	80 91 75 02 	lds	r24, 0x0275
    18e2:	88 23       	and	r24, r24
    18e4:	b9 f7       	brne	.-18     	; 0x18d4 <I2CTWI_requestRegisterFromDevice+0x12>
	TWI_operation = I2CTWI_SEND_REGISTER;
    18e6:	81 e0       	ldi	r24, 0x01	; 1
    18e8:	80 93 75 02 	sts	0x0275, r24
	I2CTWI_requestID = (int16_t)requestID;
    18ec:	10 93 73 02 	sts	0x0273, r17
    18f0:	10 92 74 02 	sts	0x0274, r1
	I2CTWI_request_adr = targetAdr;
    18f4:	e0 92 70 02 	sts	0x0270, r14
	I2CTWI_request_reg = reg;
    18f8:	00 93 71 02 	sts	0x0271, r16
	I2CTWI_request_size = numberOfBytes;
    18fc:	f0 92 72 02 	sts	0x0272, r15
}
    1900:	1f 91       	pop	r17
    1902:	0f 91       	pop	r16
    1904:	ff 90       	pop	r15
    1906:	ef 90       	pop	r14
    1908:	08 95       	ret

0000190a <I2CTWI_getReceivedData>:
 * with the msgSize parameter.
 * It does not make sense to use this function anywhere else as you 
 * can not guarantee what is in the reception buffer...
 */
void I2CTWI_getReceivedData(uint8_t *msg, uint8_t msgSize)
{
    190a:	9c 01       	movw	r18, r24
	while(I2CTWI_isBusy());
    190c:	06 b6       	in	r0, 0x36	; 54
    190e:	00 fc       	sbrc	r0, 0
    1910:	fd cf       	rjmp	.-6      	; 0x190c <I2CTWI_getReceivedData+0x2>
	uint8_t i = 0;
	if(TWI_statusReg.lastTransOK)
    1912:	80 91 6e 02 	lds	r24, 0x026E
    1916:	80 ff       	sbrs	r24, 0
    1918:	0c c0       	rjmp	.+24     	; 0x1932 <I2CTWI_getReceivedData+0x28>
    191a:	e8 e8       	ldi	r30, 0x88	; 136
    191c:	f2 e0       	ldi	r31, 0x02	; 2
    191e:	d9 01       	movw	r26, r18
		for(; i < msgSize; i++)
    1920:	70 e0       	ldi	r23, 0x00	; 0
    1922:	6e 0f       	add	r22, r30
    1924:	7f 1f       	adc	r23, r31
    1926:	02 c0       	rjmp	.+4      	; 0x192c <I2CTWI_getReceivedData+0x22>
			msg[i] = I2CTWI_recbuf[i+1];
    1928:	81 91       	ld	r24, Z+
    192a:	8d 93       	st	X+, r24
void I2CTWI_getReceivedData(uint8_t *msg, uint8_t msgSize)
{
	while(I2CTWI_isBusy());
	uint8_t i = 0;
	if(TWI_statusReg.lastTransOK)
		for(; i < msgSize; i++)
    192c:	e6 17       	cp	r30, r22
    192e:	f7 07       	cpc	r31, r23
    1930:	d9 f7       	brne	.-10     	; 0x1928 <I2CTWI_getReceivedData+0x1e>
    1932:	08 95       	ret

00001934 <I2CTWI_getState>:
 * This function returns the last TWI State / Error State. It waits until
 * TWI Module has completed last operation! 
 */
uint8_t I2CTWI_getState(void)
{
	while(I2CTWI_isBusy()); // Wait until TWI has completed the transmission.
    1934:	06 b6       	in	r0, 0x36	; 54
    1936:	00 fc       	sbrc	r0, 0
    1938:	fd cf       	rjmp	.-6      	; 0x1934 <I2CTWI_getState>
	return (TWI_TWSR_state); // Return error state.
}
    193a:	80 91 6f 02 	lds	r24, 0x026F
    193e:	08 95       	ret

00001940 <I2CTWI_readRegisters>:
/**
 * Reads "numberOfBytes" from "targetAdr" Register "reg" into "messageBuffer". 
 * If the slave device supports auto increment, then it reads all subsequent registers of course! 
 */
void I2CTWI_readRegisters(uint8_t targetAdr, uint8_t reg, uint8_t * messageBuffer, uint8_t numberOfBytes)
{
    1940:	ff 92       	push	r15
    1942:	0f 93       	push	r16
    1944:	1f 93       	push	r17
    1946:	cf 93       	push	r28
    1948:	df 93       	push	r29
    194a:	08 2f       	mov	r16, r24
    194c:	f6 2e       	mov	r15, r22
    194e:	ea 01       	movw	r28, r20
    1950:	12 2f       	mov	r17, r18
    1952:	02 c0       	rjmp	.+4      	; 0x1958 <I2CTWI_readRegisters+0x18>
	while(I2CTWI_isBusy() || TWI_operation != I2CTWI_NO_OPERATION) task_I2CTWI();
    1954:	0e 94 c8 0b 	call	0x1790	; 0x1790 <task_I2CTWI>
    1958:	06 b6       	in	r0, 0x36	; 54
    195a:	00 fc       	sbrc	r0, 0
    195c:	fb cf       	rjmp	.-10     	; 0x1954 <I2CTWI_readRegisters+0x14>
    195e:	80 91 75 02 	lds	r24, 0x0275
    1962:	88 23       	and	r24, r24
    1964:	b9 f7       	brne	.-18     	; 0x1954 <I2CTWI_readRegisters+0x14>
	TWI_operation = I2CTWI_SEND_REGISTER;
    1966:	81 e0       	ldi	r24, 0x01	; 1
    1968:	80 93 75 02 	sts	0x0275, r24
	I2CTWI_request_adr = targetAdr;
    196c:	00 93 70 02 	sts	0x0270, r16
	I2CTWI_requestID = -1;
    1970:	8f ef       	ldi	r24, 0xFF	; 255
    1972:	9f ef       	ldi	r25, 0xFF	; 255
    1974:	90 93 74 02 	sts	0x0274, r25
    1978:	80 93 73 02 	sts	0x0273, r24
	I2CTWI_request_reg = reg;
    197c:	f0 92 71 02 	sts	0x0271, r15
	I2CTWI_request_size = numberOfBytes;
    1980:	10 93 72 02 	sts	0x0272, r17
    1984:	02 c0       	rjmp	.+4      	; 0x198a <I2CTWI_readRegisters+0x4a>
	while(I2CTWI_isBusy() || TWI_operation != I2CTWI_NO_OPERATION) task_I2CTWI();
    1986:	0e 94 c8 0b 	call	0x1790	; 0x1790 <task_I2CTWI>
    198a:	06 b6       	in	r0, 0x36	; 54
    198c:	00 fc       	sbrc	r0, 0
    198e:	fb cf       	rjmp	.-10     	; 0x1986 <I2CTWI_readRegisters+0x46>
    1990:	80 91 75 02 	lds	r24, 0x0275
    1994:	88 23       	and	r24, r24
    1996:	b9 f7       	brne	.-18     	; 0x1986 <I2CTWI_readRegisters+0x46>
	if (TWI_statusReg.lastTransOK) 
    1998:	80 91 6e 02 	lds	r24, 0x026E
    199c:	80 ff       	sbrs	r24, 0
    199e:	05 c0       	rjmp	.+10     	; 0x19aa <I2CTWI_readRegisters+0x6a>
		I2CTWI_getReceivedData(&messageBuffer[0], numberOfBytes+1);
    19a0:	1f 5f       	subi	r17, 0xFF	; 255
    19a2:	ce 01       	movw	r24, r28
    19a4:	61 2f       	mov	r22, r17
    19a6:	0e 94 85 0c 	call	0x190a	; 0x190a <I2CTWI_getReceivedData>
}
    19aa:	df 91       	pop	r29
    19ac:	cf 91       	pop	r28
    19ae:	1f 91       	pop	r17
    19b0:	0f 91       	pop	r16
    19b2:	ff 90       	pop	r15
    19b4:	08 95       	ret

000019b6 <I2CTWI_readBytes>:
 * Same as readRegisters, but you need to make sure which register to read yourself - if there
 * are any registers at all in your slave device.  
 * 
 */
void I2CTWI_readBytes(uint8_t targetAdr, uint8_t * messageBuffer, uint8_t numberOfBytes)
{
    19b6:	ef 92       	push	r14
    19b8:	ff 92       	push	r15
    19ba:	0f 93       	push	r16
    19bc:	1f 93       	push	r17
    19be:	df 93       	push	r29
    19c0:	cf 93       	push	r28
    19c2:	0f 92       	push	r0
    19c4:	cd b7       	in	r28, 0x3d	; 61
    19c6:	de b7       	in	r29, 0x3e	; 62
    19c8:	08 2f       	mov	r16, r24
    19ca:	7b 01       	movw	r14, r22
    19cc:	14 2f       	mov	r17, r20
    19ce:	02 c0       	rjmp	.+4      	; 0x19d4 <I2CTWI_readBytes+0x1e>
	while(I2CTWI_isBusy() || TWI_operation != I2CTWI_NO_OPERATION) task_I2CTWI();
    19d0:	0e 94 c8 0b 	call	0x1790	; 0x1790 <task_I2CTWI>
    19d4:	06 b6       	in	r0, 0x36	; 54
    19d6:	00 fc       	sbrc	r0, 0
    19d8:	fb cf       	rjmp	.-10     	; 0x19d0 <I2CTWI_readBytes+0x1a>
    19da:	80 91 75 02 	lds	r24, 0x0275
    19de:	88 23       	and	r24, r24
    19e0:	b9 f7       	brne	.-18     	; 0x19d0 <I2CTWI_readBytes+0x1a>
 * A small delay that is required between some transfers. Without this delay
 * the transmission may fail.
 */
void I2CTWI_delay(void)
{
	volatile uint8_t dly = 150;
    19e2:	86 e9       	ldi	r24, 0x96	; 150
    19e4:	89 83       	std	Y+1, r24	; 0x01
	while(dly--);
    19e6:	89 81       	ldd	r24, Y+1	; 0x01
    19e8:	81 50       	subi	r24, 0x01	; 1
    19ea:	89 83       	std	Y+1, r24	; 0x01
    19ec:	8f 5f       	subi	r24, 0xFF	; 255
    19ee:	d9 f7       	brne	.-10     	; 0x19e6 <I2CTWI_readBytes+0x30>
 */
void I2CTWI_readBytes(uint8_t targetAdr, uint8_t * messageBuffer, uint8_t numberOfBytes)
{
	while(I2CTWI_isBusy() || TWI_operation != I2CTWI_NO_OPERATION) task_I2CTWI();
	I2CTWI_delay();
	TWI_operation = I2CTWI_REQUEST_BYTES;
    19f0:	82 e0       	ldi	r24, 0x02	; 2
    19f2:	80 93 75 02 	sts	0x0275, r24
	I2CTWI_request_adr = targetAdr;
    19f6:	00 93 70 02 	sts	0x0270, r16
	I2CTWI_requestID = -1;
    19fa:	8f ef       	ldi	r24, 0xFF	; 255
    19fc:	9f ef       	ldi	r25, 0xFF	; 255
    19fe:	90 93 74 02 	sts	0x0274, r25
    1a02:	80 93 73 02 	sts	0x0273, r24
	I2CTWI_request_size = numberOfBytes;
    1a06:	10 93 72 02 	sts	0x0272, r17
    1a0a:	02 c0       	rjmp	.+4      	; 0x1a10 <I2CTWI_readBytes+0x5a>
	while(I2CTWI_isBusy() || TWI_operation != I2CTWI_NO_OPERATION) task_I2CTWI();
    1a0c:	0e 94 c8 0b 	call	0x1790	; 0x1790 <task_I2CTWI>
    1a10:	06 b6       	in	r0, 0x36	; 54
    1a12:	00 fc       	sbrc	r0, 0
    1a14:	fb cf       	rjmp	.-10     	; 0x1a0c <I2CTWI_readBytes+0x56>
    1a16:	80 91 75 02 	lds	r24, 0x0275
    1a1a:	88 23       	and	r24, r24
    1a1c:	b9 f7       	brne	.-18     	; 0x1a0c <I2CTWI_readBytes+0x56>
	if (TWI_statusReg.lastTransOK) 
    1a1e:	80 91 6e 02 	lds	r24, 0x026E
    1a22:	80 ff       	sbrs	r24, 0
    1a24:	05 c0       	rjmp	.+10     	; 0x1a30 <I2CTWI_readBytes+0x7a>
		I2CTWI_getReceivedData(&messageBuffer[0], numberOfBytes+1);
    1a26:	1f 5f       	subi	r17, 0xFF	; 255
    1a28:	c7 01       	movw	r24, r14
    1a2a:	61 2f       	mov	r22, r17
    1a2c:	0e 94 85 0c 	call	0x190a	; 0x190a <I2CTWI_getReceivedData>
}
    1a30:	0f 90       	pop	r0
    1a32:	cf 91       	pop	r28
    1a34:	df 91       	pop	r29
    1a36:	1f 91       	pop	r17
    1a38:	0f 91       	pop	r16
    1a3a:	ff 90       	pop	r15
    1a3c:	ef 90       	pop	r14
    1a3e:	08 95       	ret

00001a40 <I2CTWI_readByte>:

/**
 * Reads a single byte from the slave device. 
 */
uint8_t I2CTWI_readByte(uint8_t targetAdr)
{
    1a40:	1f 93       	push	r17
    1a42:	df 93       	push	r29
    1a44:	cf 93       	push	r28
    1a46:	0f 92       	push	r0
    1a48:	cd b7       	in	r28, 0x3d	; 61
    1a4a:	de b7       	in	r29, 0x3e	; 62
    1a4c:	18 2f       	mov	r17, r24
    1a4e:	02 c0       	rjmp	.+4      	; 0x1a54 <I2CTWI_readByte+0x14>
	while(I2CTWI_isBusy() || TWI_operation != I2CTWI_NO_OPERATION) task_I2CTWI();
    1a50:	0e 94 c8 0b 	call	0x1790	; 0x1790 <task_I2CTWI>
    1a54:	06 b6       	in	r0, 0x36	; 54
    1a56:	00 fc       	sbrc	r0, 0
    1a58:	fb cf       	rjmp	.-10     	; 0x1a50 <I2CTWI_readByte+0x10>
    1a5a:	80 91 75 02 	lds	r24, 0x0275
    1a5e:	88 23       	and	r24, r24
    1a60:	b9 f7       	brne	.-18     	; 0x1a50 <I2CTWI_readByte+0x10>
 * A small delay that is required between some transfers. Without this delay
 * the transmission may fail.
 */
void I2CTWI_delay(void)
{
	volatile uint8_t dly = 150;
    1a62:	86 e9       	ldi	r24, 0x96	; 150
    1a64:	89 83       	std	Y+1, r24	; 0x01
	while(dly--);
    1a66:	89 81       	ldd	r24, Y+1	; 0x01
    1a68:	81 50       	subi	r24, 0x01	; 1
    1a6a:	89 83       	std	Y+1, r24	; 0x01
    1a6c:	8f 5f       	subi	r24, 0xFF	; 255
    1a6e:	d9 f7       	brne	.-10     	; 0x1a66 <I2CTWI_readByte+0x26>
 */
uint8_t I2CTWI_readByte(uint8_t targetAdr)
{
	while(I2CTWI_isBusy() || TWI_operation != I2CTWI_NO_OPERATION) task_I2CTWI();
	I2CTWI_delay();
	TWI_operation = I2CTWI_REQUEST_BYTES;
    1a70:	82 e0       	ldi	r24, 0x02	; 2
    1a72:	80 93 75 02 	sts	0x0275, r24
	I2CTWI_request_adr = targetAdr;
    1a76:	10 93 70 02 	sts	0x0270, r17
	I2CTWI_requestID = -1;
    1a7a:	8f ef       	ldi	r24, 0xFF	; 255
    1a7c:	9f ef       	ldi	r25, 0xFF	; 255
    1a7e:	90 93 74 02 	sts	0x0274, r25
    1a82:	80 93 73 02 	sts	0x0273, r24
	I2CTWI_request_size = 1;
    1a86:	81 e0       	ldi	r24, 0x01	; 1
    1a88:	80 93 72 02 	sts	0x0272, r24
    1a8c:	02 c0       	rjmp	.+4      	; 0x1a92 <I2CTWI_readByte+0x52>
	while(TWI_operation != I2CTWI_NO_OPERATION) task_I2CTWI();
    1a8e:	0e 94 c8 0b 	call	0x1790	; 0x1790 <task_I2CTWI>
    1a92:	80 91 75 02 	lds	r24, 0x0275
    1a96:	88 23       	and	r24, r24
    1a98:	d1 f7       	brne	.-12     	; 0x1a8e <I2CTWI_readByte+0x4e>
	if (TWI_statusReg.lastTransOK)
    1a9a:	80 91 6e 02 	lds	r24, 0x026E
    1a9e:	80 fd       	sbrc	r24, 0
    1aa0:	02 c0       	rjmp	.+4      	; 0x1aa6 <I2CTWI_readByte+0x66>
    1aa2:	80 e0       	ldi	r24, 0x00	; 0
    1aa4:	02 c0       	rjmp	.+4      	; 0x1aaa <I2CTWI_readByte+0x6a>
		return I2CTWI_recbuf[1];
    1aa6:	80 91 88 02 	lds	r24, 0x0288
	else
		return 0;
}
    1aaa:	0f 90       	pop	r0
    1aac:	cf 91       	pop	r28
    1aae:	df 91       	pop	r29
    1ab0:	1f 91       	pop	r17
    1ab2:	08 95       	ret

00001ab4 <I2CTWI_transmitByte>:
 * it does NOT wait until this transmission is finished! 
 * This allows you to perform other things while the transmission is 
 * in progress! 
 */
void I2CTWI_transmitByte(uint8_t targetAdr, uint8_t data)
{
    1ab4:	0f 93       	push	r16
    1ab6:	1f 93       	push	r17
    1ab8:	df 93       	push	r29
    1aba:	cf 93       	push	r28
    1abc:	0f 92       	push	r0
    1abe:	cd b7       	in	r28, 0x3d	; 61
    1ac0:	de b7       	in	r29, 0x3e	; 62
    1ac2:	18 2f       	mov	r17, r24
    1ac4:	06 2f       	mov	r16, r22
    1ac6:	02 c0       	rjmp	.+4      	; 0x1acc <I2CTWI_transmitByte+0x18>
	while(I2CTWI_isBusy() || TWI_operation != I2CTWI_NO_OPERATION) task_I2CTWI();
    1ac8:	0e 94 c8 0b 	call	0x1790	; 0x1790 <task_I2CTWI>
    1acc:	06 b6       	in	r0, 0x36	; 54
    1ace:	00 fc       	sbrc	r0, 0
    1ad0:	fb cf       	rjmp	.-10     	; 0x1ac8 <I2CTWI_transmitByte+0x14>
    1ad2:	80 91 75 02 	lds	r24, 0x0275
    1ad6:	88 23       	and	r24, r24
    1ad8:	b9 f7       	brne	.-18     	; 0x1ac8 <I2CTWI_transmitByte+0x14>
 * A small delay that is required between some transfers. Without this delay
 * the transmission may fail.
 */
void I2CTWI_delay(void)
{
	volatile uint8_t dly = 150;
    1ada:	86 e9       	ldi	r24, 0x96	; 150
    1adc:	89 83       	std	Y+1, r24	; 0x01
	while(dly--);
    1ade:	89 81       	ldd	r24, Y+1	; 0x01
    1ae0:	81 50       	subi	r24, 0x01	; 1
    1ae2:	89 83       	std	Y+1, r24	; 0x01
    1ae4:	8f 5f       	subi	r24, 0xFF	; 255
    1ae6:	d9 f7       	brne	.-10     	; 0x1ade <I2CTWI_transmitByte+0x2a>
 */
void I2CTWI_transmitByte(uint8_t targetAdr, uint8_t data)
{
	while(I2CTWI_isBusy() || TWI_operation != I2CTWI_NO_OPERATION) task_I2CTWI();
	I2CTWI_delay();
	TWI_msgSize = 2;
    1ae8:	82 e0       	ldi	r24, 0x02	; 2
    1aea:	80 93 b7 02 	sts	0x02B7, r24
	I2CTWI_buf[0] = targetAdr;
    1aee:	10 93 77 02 	sts	0x0277, r17
	I2CTWI_buf[1] = data;
    1af2:	00 93 78 02 	sts	0x0278, r16
	TWI_statusReg.all = 0;
    1af6:	10 92 6e 02 	sts	0x026E, r1
	TWCR = (1<<TWEN)|(1<<TWIE)|(1<<TWINT)|(0<<TWEA)|(1<<TWSTA)|(0<<TWSTO);
    1afa:	85 ea       	ldi	r24, 0xA5	; 165
    1afc:	86 bf       	out	0x36, r24	; 54
}
    1afe:	0f 90       	pop	r0
    1b00:	cf 91       	pop	r28
    1b02:	df 91       	pop	r29
    1b04:	1f 91       	pop	r17
    1b06:	0f 91       	pop	r16
    1b08:	08 95       	ret

00001b0a <I2CTWI_transmit2Bytes>:
/**
 * This is just the same as transmitByte, but you can pass 2 Bytes to
 * this function which are then transferred. 
 */
void I2CTWI_transmit2Bytes(uint8_t targetAdr, uint8_t data1, uint8_t data2)
{
    1b0a:	ff 92       	push	r15
    1b0c:	0f 93       	push	r16
    1b0e:	1f 93       	push	r17
    1b10:	df 93       	push	r29
    1b12:	cf 93       	push	r28
    1b14:	0f 92       	push	r0
    1b16:	cd b7       	in	r28, 0x3d	; 61
    1b18:	de b7       	in	r29, 0x3e	; 62
    1b1a:	18 2f       	mov	r17, r24
    1b1c:	06 2f       	mov	r16, r22
    1b1e:	f4 2e       	mov	r15, r20
    1b20:	02 c0       	rjmp	.+4      	; 0x1b26 <I2CTWI_transmit2Bytes+0x1c>
	while(I2CTWI_isBusy() || TWI_operation != I2CTWI_NO_OPERATION) task_I2CTWI();
    1b22:	0e 94 c8 0b 	call	0x1790	; 0x1790 <task_I2CTWI>
    1b26:	06 b6       	in	r0, 0x36	; 54
    1b28:	00 fc       	sbrc	r0, 0
    1b2a:	fb cf       	rjmp	.-10     	; 0x1b22 <I2CTWI_transmit2Bytes+0x18>
    1b2c:	80 91 75 02 	lds	r24, 0x0275
    1b30:	88 23       	and	r24, r24
    1b32:	b9 f7       	brne	.-18     	; 0x1b22 <I2CTWI_transmit2Bytes+0x18>
 * A small delay that is required between some transfers. Without this delay
 * the transmission may fail.
 */
void I2CTWI_delay(void)
{
	volatile uint8_t dly = 150;
    1b34:	86 e9       	ldi	r24, 0x96	; 150
    1b36:	89 83       	std	Y+1, r24	; 0x01
	while(dly--);
    1b38:	89 81       	ldd	r24, Y+1	; 0x01
    1b3a:	81 50       	subi	r24, 0x01	; 1
    1b3c:	89 83       	std	Y+1, r24	; 0x01
    1b3e:	8f 5f       	subi	r24, 0xFF	; 255
    1b40:	d9 f7       	brne	.-10     	; 0x1b38 <I2CTWI_transmit2Bytes+0x2e>
 */
void I2CTWI_transmit2Bytes(uint8_t targetAdr, uint8_t data1, uint8_t data2)
{
	while(I2CTWI_isBusy() || TWI_operation != I2CTWI_NO_OPERATION) task_I2CTWI();
	I2CTWI_delay();
	TWI_msgSize = 3;
    1b42:	83 e0       	ldi	r24, 0x03	; 3
    1b44:	80 93 b7 02 	sts	0x02B7, r24
	I2CTWI_buf[0] = targetAdr;
    1b48:	10 93 77 02 	sts	0x0277, r17
	I2CTWI_buf[1] = data1;
    1b4c:	00 93 78 02 	sts	0x0278, r16
	I2CTWI_buf[2] = data2;
    1b50:	f0 92 79 02 	sts	0x0279, r15
	TWI_statusReg.all = 0;
    1b54:	10 92 6e 02 	sts	0x026E, r1
	TWCR = (1<<TWEN)|(1<<TWIE)|(1<<TWINT)|(0<<TWEA)|(1<<TWSTA)|(0<<TWSTO);
    1b58:	85 ea       	ldi	r24, 0xA5	; 165
    1b5a:	86 bf       	out	0x36, r24	; 54
}
    1b5c:	0f 90       	pop	r0
    1b5e:	cf 91       	pop	r28
    1b60:	df 91       	pop	r29
    1b62:	1f 91       	pop	r17
    1b64:	0f 91       	pop	r16
    1b66:	ff 90       	pop	r15
    1b68:	08 95       	ret

00001b6a <I2CTWI_transmit3Bytes>:

/**
 * Transmits 3 Bytes to the slave.
 */
void I2CTWI_transmit3Bytes(uint8_t targetAdr, uint8_t data1, uint8_t data2, uint8_t data3)
{
    1b6a:	ef 92       	push	r14
    1b6c:	ff 92       	push	r15
    1b6e:	0f 93       	push	r16
    1b70:	1f 93       	push	r17
    1b72:	df 93       	push	r29
    1b74:	cf 93       	push	r28
    1b76:	0f 92       	push	r0
    1b78:	cd b7       	in	r28, 0x3d	; 61
    1b7a:	de b7       	in	r29, 0x3e	; 62
    1b7c:	18 2f       	mov	r17, r24
    1b7e:	06 2f       	mov	r16, r22
    1b80:	f4 2e       	mov	r15, r20
    1b82:	e2 2e       	mov	r14, r18
    1b84:	02 c0       	rjmp	.+4      	; 0x1b8a <I2CTWI_transmit3Bytes+0x20>
	while(I2CTWI_isBusy() || TWI_operation != I2CTWI_NO_OPERATION) task_I2CTWI();
    1b86:	0e 94 c8 0b 	call	0x1790	; 0x1790 <task_I2CTWI>
    1b8a:	06 b6       	in	r0, 0x36	; 54
    1b8c:	00 fc       	sbrc	r0, 0
    1b8e:	fb cf       	rjmp	.-10     	; 0x1b86 <I2CTWI_transmit3Bytes+0x1c>
    1b90:	80 91 75 02 	lds	r24, 0x0275
    1b94:	88 23       	and	r24, r24
    1b96:	b9 f7       	brne	.-18     	; 0x1b86 <I2CTWI_transmit3Bytes+0x1c>
 * A small delay that is required between some transfers. Without this delay
 * the transmission may fail.
 */
void I2CTWI_delay(void)
{
	volatile uint8_t dly = 150;
    1b98:	86 e9       	ldi	r24, 0x96	; 150
    1b9a:	89 83       	std	Y+1, r24	; 0x01
	while(dly--);
    1b9c:	89 81       	ldd	r24, Y+1	; 0x01
    1b9e:	81 50       	subi	r24, 0x01	; 1
    1ba0:	89 83       	std	Y+1, r24	; 0x01
    1ba2:	8f 5f       	subi	r24, 0xFF	; 255
    1ba4:	d9 f7       	brne	.-10     	; 0x1b9c <I2CTWI_transmit3Bytes+0x32>
 */
void I2CTWI_transmit3Bytes(uint8_t targetAdr, uint8_t data1, uint8_t data2, uint8_t data3)
{
	while(I2CTWI_isBusy() || TWI_operation != I2CTWI_NO_OPERATION) task_I2CTWI();
	I2CTWI_delay();
	TWI_msgSize = 4;
    1ba6:	84 e0       	ldi	r24, 0x04	; 4
    1ba8:	80 93 b7 02 	sts	0x02B7, r24
	I2CTWI_buf[0] = targetAdr;
    1bac:	10 93 77 02 	sts	0x0277, r17
	I2CTWI_buf[1] = data1;
    1bb0:	00 93 78 02 	sts	0x0278, r16
	I2CTWI_buf[2] = data2;
    1bb4:	f0 92 79 02 	sts	0x0279, r15
	I2CTWI_buf[3] = data3;
    1bb8:	e0 92 7a 02 	sts	0x027A, r14
	TWI_statusReg.all = 0;
    1bbc:	10 92 6e 02 	sts	0x026E, r1
	TWCR = (1<<TWEN)|(1<<TWIE)|(1<<TWINT)|(0<<TWEA)|(1<<TWSTA)|(0<<TWSTO);
    1bc0:	85 ea       	ldi	r24, 0xA5	; 165
    1bc2:	86 bf       	out	0x36, r24	; 54
}
    1bc4:	0f 90       	pop	r0
    1bc6:	cf 91       	pop	r28
    1bc8:	df 91       	pop	r29
    1bca:	1f 91       	pop	r17
    1bcc:	0f 91       	pop	r16
    1bce:	ff 90       	pop	r15
    1bd0:	ef 90       	pop	r14
    1bd2:	08 95       	ret

00001bd4 <I2CTWI_transmit4Bytes>:

/**
 * Transmits 4 Bytes to the slave.
 */
void I2CTWI_transmit4Bytes(uint8_t targetAdr, uint8_t data1, uint8_t data2, uint8_t data3, uint8_t data4)
{
    1bd4:	df 92       	push	r13
    1bd6:	ef 92       	push	r14
    1bd8:	ff 92       	push	r15
    1bda:	0f 93       	push	r16
    1bdc:	1f 93       	push	r17
    1bde:	df 93       	push	r29
    1be0:	cf 93       	push	r28
    1be2:	0f 92       	push	r0
    1be4:	cd b7       	in	r28, 0x3d	; 61
    1be6:	de b7       	in	r29, 0x3e	; 62
    1be8:	18 2f       	mov	r17, r24
    1bea:	f6 2e       	mov	r15, r22
    1bec:	e4 2e       	mov	r14, r20
    1bee:	d2 2e       	mov	r13, r18
    1bf0:	02 c0       	rjmp	.+4      	; 0x1bf6 <I2CTWI_transmit4Bytes+0x22>
	while(I2CTWI_isBusy() || TWI_operation != I2CTWI_NO_OPERATION) task_I2CTWI();
    1bf2:	0e 94 c8 0b 	call	0x1790	; 0x1790 <task_I2CTWI>
    1bf6:	06 b6       	in	r0, 0x36	; 54
    1bf8:	00 fc       	sbrc	r0, 0
    1bfa:	fb cf       	rjmp	.-10     	; 0x1bf2 <I2CTWI_transmit4Bytes+0x1e>
    1bfc:	80 91 75 02 	lds	r24, 0x0275
    1c00:	88 23       	and	r24, r24
    1c02:	b9 f7       	brne	.-18     	; 0x1bf2 <I2CTWI_transmit4Bytes+0x1e>
 * A small delay that is required between some transfers. Without this delay
 * the transmission may fail.
 */
void I2CTWI_delay(void)
{
	volatile uint8_t dly = 150;
    1c04:	86 e9       	ldi	r24, 0x96	; 150
    1c06:	89 83       	std	Y+1, r24	; 0x01
	while(dly--);
    1c08:	89 81       	ldd	r24, Y+1	; 0x01
    1c0a:	81 50       	subi	r24, 0x01	; 1
    1c0c:	89 83       	std	Y+1, r24	; 0x01
    1c0e:	8f 5f       	subi	r24, 0xFF	; 255
    1c10:	d9 f7       	brne	.-10     	; 0x1c08 <I2CTWI_transmit4Bytes+0x34>
 */
void I2CTWI_transmit4Bytes(uint8_t targetAdr, uint8_t data1, uint8_t data2, uint8_t data3, uint8_t data4)
{
	while(I2CTWI_isBusy() || TWI_operation != I2CTWI_NO_OPERATION) task_I2CTWI();
	I2CTWI_delay();
	TWI_msgSize = 5;
    1c12:	85 e0       	ldi	r24, 0x05	; 5
    1c14:	80 93 b7 02 	sts	0x02B7, r24
	I2CTWI_buf[0] = targetAdr;
    1c18:	10 93 77 02 	sts	0x0277, r17
	I2CTWI_buf[1] = data1;
    1c1c:	f0 92 78 02 	sts	0x0278, r15
	I2CTWI_buf[2] = data2;
    1c20:	e0 92 79 02 	sts	0x0279, r14
	I2CTWI_buf[3] = data3;
    1c24:	d0 92 7a 02 	sts	0x027A, r13
	I2CTWI_buf[4] = data4;
    1c28:	00 93 7b 02 	sts	0x027B, r16
	TWI_statusReg.all = 0;
    1c2c:	10 92 6e 02 	sts	0x026E, r1
	TWCR = (1<<TWEN)|(1<<TWIE)|(1<<TWINT)|(0<<TWEA)|(1<<TWSTA)|(0<<TWSTO);
    1c30:	85 ea       	ldi	r24, 0xA5	; 165
    1c32:	86 bf       	out	0x36, r24	; 54
}
    1c34:	0f 90       	pop	r0
    1c36:	cf 91       	pop	r28
    1c38:	df 91       	pop	r29
    1c3a:	1f 91       	pop	r17
    1c3c:	0f 91       	pop	r16
    1c3e:	ff 90       	pop	r15
    1c40:	ef 90       	pop	r14
    1c42:	df 90       	pop	r13
    1c44:	08 95       	ret

00001c46 <I2CTWI_transmitBytes>:
/**
 * Transmits "numberOfBytes" Bytes to the Slave device. The Bytes need to be
 * in the Buffer "msg". Otherwise it is just the same as the other transmit functions.
 */
void I2CTWI_transmitBytes(uint8_t targetAdr, uint8_t *msg, uint8_t numberOfBytes)
{
    1c46:	ef 92       	push	r14
    1c48:	ff 92       	push	r15
    1c4a:	0f 93       	push	r16
    1c4c:	1f 93       	push	r17
    1c4e:	df 93       	push	r29
    1c50:	cf 93       	push	r28
    1c52:	0f 92       	push	r0
    1c54:	cd b7       	in	r28, 0x3d	; 61
    1c56:	de b7       	in	r29, 0x3e	; 62
    1c58:	08 2f       	mov	r16, r24
    1c5a:	f6 2e       	mov	r15, r22
    1c5c:	e7 2e       	mov	r14, r23
    1c5e:	14 2f       	mov	r17, r20
    1c60:	02 c0       	rjmp	.+4      	; 0x1c66 <I2CTWI_transmitBytes+0x20>
	while(I2CTWI_isBusy() || TWI_operation != I2CTWI_NO_OPERATION) task_I2CTWI();
    1c62:	0e 94 c8 0b 	call	0x1790	; 0x1790 <task_I2CTWI>
    1c66:	06 b6       	in	r0, 0x36	; 54
    1c68:	00 fc       	sbrc	r0, 0
    1c6a:	fb cf       	rjmp	.-10     	; 0x1c62 <I2CTWI_transmitBytes+0x1c>
    1c6c:	80 91 75 02 	lds	r24, 0x0275
    1c70:	88 23       	and	r24, r24
    1c72:	b9 f7       	brne	.-18     	; 0x1c62 <I2CTWI_transmitBytes+0x1c>
 * A small delay that is required between some transfers. Without this delay
 * the transmission may fail.
 */
void I2CTWI_delay(void)
{
	volatile uint8_t dly = 150;
    1c74:	86 e9       	ldi	r24, 0x96	; 150
    1c76:	89 83       	std	Y+1, r24	; 0x01
	while(dly--);
    1c78:	89 81       	ldd	r24, Y+1	; 0x01
    1c7a:	81 50       	subi	r24, 0x01	; 1
    1c7c:	89 83       	std	Y+1, r24	; 0x01
    1c7e:	8f 5f       	subi	r24, 0xFF	; 255
    1c80:	d9 f7       	brne	.-10     	; 0x1c78 <I2CTWI_transmitBytes+0x32>
 */
void I2CTWI_transmitBytes(uint8_t targetAdr, uint8_t *msg, uint8_t numberOfBytes)
{
	while(I2CTWI_isBusy() || TWI_operation != I2CTWI_NO_OPERATION) task_I2CTWI();
	I2CTWI_delay();
	numberOfBytes++; 
    1c82:	41 2f       	mov	r20, r17
    1c84:	4f 5f       	subi	r20, 0xFF	; 255
	TWI_msgSize = numberOfBytes;
    1c86:	40 93 b7 02 	sts	0x02B7, r20
	I2CTWI_buf[0]  = targetAdr;
    1c8a:	00 93 77 02 	sts	0x0277, r16
    1c8e:	a8 e7       	ldi	r26, 0x78	; 120
    1c90:	b2 e0       	ldi	r27, 0x02	; 2
    1c92:	8f 2d       	mov	r24, r15
    1c94:	9e 2d       	mov	r25, r14
    1c96:	9c 01       	movw	r18, r24
    1c98:	f9 01       	movw	r30, r18
    1c9a:	02 c0       	rjmp	.+4      	; 0x1ca0 <I2CTWI_transmitBytes+0x5a>
	uint8_t i = 0;
	for(; i < numberOfBytes; i++)
		I2CTWI_buf[i+1] = msg[i];
    1c9c:	81 91       	ld	r24, Z+
    1c9e:	8d 93       	st	X+, r24
	I2CTWI_delay();
	numberOfBytes++; 
	TWI_msgSize = numberOfBytes;
	I2CTWI_buf[0]  = targetAdr;
	uint8_t i = 0;
	for(; i < numberOfBytes; i++)
    1ca0:	8e 2f       	mov	r24, r30
    1ca2:	8f 19       	sub	r24, r15
    1ca4:	84 17       	cp	r24, r20
    1ca6:	d0 f3       	brcs	.-12     	; 0x1c9c <I2CTWI_transmitBytes+0x56>
		I2CTWI_buf[i+1] = msg[i];
	TWI_statusReg.all = 0;
    1ca8:	10 92 6e 02 	sts	0x026E, r1
	TWCR = (1<<TWEN)|(1<<TWIE)|(1<<TWINT)|(0<<TWEA)|(1<<TWSTA)|(0<<TWSTO);
    1cac:	85 ea       	ldi	r24, 0xA5	; 165
    1cae:	86 bf       	out	0x36, r24	; 54
}
    1cb0:	0f 90       	pop	r0
    1cb2:	cf 91       	pop	r28
    1cb4:	df 91       	pop	r29
    1cb6:	1f 91       	pop	r17
    1cb8:	0f 91       	pop	r16
    1cba:	ff 90       	pop	r15
    1cbc:	ef 90       	pop	r14
    1cbe:	08 95       	ret

00001cc0 <__vector_19>:

/*
 * TWI ISR
 */
ISR (TWI_vect)
{
    1cc0:	1f 92       	push	r1
    1cc2:	0f 92       	push	r0
    1cc4:	0f b6       	in	r0, 0x3f	; 63
    1cc6:	0f 92       	push	r0
    1cc8:	11 24       	eor	r1, r1
    1cca:	2f 93       	push	r18
    1ccc:	3f 93       	push	r19
    1cce:	8f 93       	push	r24
    1cd0:	9f 93       	push	r25
    1cd2:	ef 93       	push	r30
    1cd4:	ff 93       	push	r31
	static uint8_t TWI_bufPos = 0;
	switch (TWSR)
    1cd6:	81 b1       	in	r24, 0x01	; 1
    1cd8:	88 32       	cpi	r24, 0x28	; 40
    1cda:	c9 f0       	breq	.+50     	; 0x1d0e <__vector_19+0x4e>
    1cdc:	89 32       	cpi	r24, 0x29	; 41
    1cde:	40 f4       	brcc	.+16     	; 0x1cf0 <__vector_19+0x30>
    1ce0:	80 31       	cpi	r24, 0x10	; 16
    1ce2:	99 f0       	breq	.+38     	; 0x1d0a <__vector_19+0x4a>
    1ce4:	88 31       	cpi	r24, 0x18	; 24
    1ce6:	99 f0       	breq	.+38     	; 0x1d0e <__vector_19+0x4e>
    1ce8:	88 30       	cpi	r24, 0x08	; 8
    1cea:	09 f0       	breq	.+2      	; 0x1cee <__vector_19+0x2e>
    1cec:	4b c0       	rjmp	.+150    	; 0x1d84 <__vector_19+0xc4>
    1cee:	0d c0       	rjmp	.+26     	; 0x1d0a <__vector_19+0x4a>
    1cf0:	80 34       	cpi	r24, 0x40	; 64
    1cf2:	41 f1       	breq	.+80     	; 0x1d44 <__vector_19+0x84>
    1cf4:	81 34       	cpi	r24, 0x41	; 65
    1cf6:	20 f4       	brcc	.+8      	; 0x1d00 <__vector_19+0x40>
    1cf8:	88 33       	cpi	r24, 0x38	; 56
    1cfa:	09 f0       	breq	.+2      	; 0x1cfe <__vector_19+0x3e>
    1cfc:	43 c0       	rjmp	.+134    	; 0x1d84 <__vector_19+0xc4>
    1cfe:	3d c0       	rjmp	.+122    	; 0x1d7a <__vector_19+0xba>
    1d00:	80 35       	cpi	r24, 0x50	; 80
    1d02:	a9 f0       	breq	.+42     	; 0x1d2e <__vector_19+0x6e>
    1d04:	88 35       	cpi	r24, 0x58	; 88
    1d06:	f1 f5       	brne	.+124    	; 0x1d84 <__vector_19+0xc4>
    1d08:	2b c0       	rjmp	.+86     	; 0x1d60 <__vector_19+0xa0>
	{
		case TWI_START:             // START has been transmitted  
		case TWI_REP_START:         // Repeated START has been transmitted
		  TWI_bufPos = 0;           // Set buffer pointer to the TWI Address location
    1d0a:	10 92 76 02 	sts	0x0276, r1
		case TWI_MTX_ADR_ACK:       // SLA+W has been transmitted and ACK received
		case TWI_MTX_DATA_ACK:      // Data byte has been transmitted and ACK received
		  if (TWI_bufPos < TWI_msgSize) {
    1d0e:	90 91 76 02 	lds	r25, 0x0276
    1d12:	80 91 b7 02 	lds	r24, 0x02B7
    1d16:	98 17       	cp	r25, r24
    1d18:	50 f5       	brcc	.+84     	; 0x1d6e <__vector_19+0xae>
			TWDR = I2CTWI_buf[TWI_bufPos++];
    1d1a:	e9 2f       	mov	r30, r25
    1d1c:	f0 e0       	ldi	r31, 0x00	; 0
    1d1e:	e9 58       	subi	r30, 0x89	; 137
    1d20:	fd 4f       	sbci	r31, 0xFD	; 253
    1d22:	80 81       	ld	r24, Z
    1d24:	83 b9       	out	0x03, r24	; 3
    1d26:	9f 5f       	subi	r25, 0xFF	; 255
    1d28:	90 93 76 02 	sts	0x0276, r25
    1d2c:	17 c0       	rjmp	.+46     	; 0x1d5c <__vector_19+0x9c>
				   (0<<TWEA)|(0<<TWSTA)|(1<<TWSTO)|           // Initiate a STOP condition.
				   (0<<TWWC);                                 //
		  }
		  break;
		case TWI_MRX_DATA_ACK:      // Data byte has been received and ACK transmitted
		  I2CTWI_recbuf[TWI_bufPos++] = TWDR;
    1d2e:	80 91 76 02 	lds	r24, 0x0276
    1d32:	93 b1       	in	r25, 0x03	; 3
    1d34:	e8 2f       	mov	r30, r24
    1d36:	f0 e0       	ldi	r31, 0x00	; 0
    1d38:	e9 57       	subi	r30, 0x79	; 121
    1d3a:	fd 4f       	sbci	r31, 0xFD	; 253
    1d3c:	90 83       	st	Z, r25
    1d3e:	8f 5f       	subi	r24, 0xFF	; 255
    1d40:	80 93 76 02 	sts	0x0276, r24
		case TWI_MRX_ADR_ACK:       // SLA+R has been transmitted and ACK received
		  if (TWI_bufPos < (TWI_msgSize-1) ) {                 // Detect the last byte to NACK it.
    1d44:	20 91 76 02 	lds	r18, 0x0276
    1d48:	30 e0       	ldi	r19, 0x00	; 0
    1d4a:	80 91 b7 02 	lds	r24, 0x02B7
    1d4e:	90 e0       	ldi	r25, 0x00	; 0
    1d50:	01 97       	sbiw	r24, 0x01	; 1
    1d52:	28 17       	cp	r18, r24
    1d54:	39 07       	cpc	r19, r25
    1d56:	14 f4       	brge	.+4      	; 0x1d5c <__vector_19+0x9c>
			TWCR = (1<<TWEN)|                                 // TWI Interface enabled
    1d58:	85 ec       	ldi	r24, 0xC5	; 197
    1d5a:	18 c0       	rjmp	.+48     	; 0x1d8c <__vector_19+0xcc>
				   (1<<TWIE)|(1<<TWINT)|                      // Enable TWI Interupt and clear the flag to read next byte
				   (1<<TWEA)|(0<<TWSTA)|(0<<TWSTO)|           // Send ACK after reception
				   (0<<TWWC);                                 //  
		  } else {                   // Send NACK after next reception
			TWCR = (1<<TWEN)|                                 // TWI Interface enabled
    1d5c:	85 e8       	ldi	r24, 0x85	; 133
    1d5e:	16 c0       	rjmp	.+44     	; 0x1d8c <__vector_19+0xcc>
				   (0<<TWEA)|(0<<TWSTA)|(0<<TWSTO)|           // Send NACK after reception
				   (0<<TWWC);                                 // 
		  }    
		  break; 
		case TWI_MRX_DATA_NACK:     // Data byte has been received and NACK transmitted
		  I2CTWI_recbuf[TWI_bufPos] = TWDR;
    1d60:	83 b1       	in	r24, 0x03	; 3
    1d62:	e0 91 76 02 	lds	r30, 0x0276
    1d66:	f0 e0       	ldi	r31, 0x00	; 0
    1d68:	e9 57       	subi	r30, 0x79	; 121
    1d6a:	fd 4f       	sbci	r31, 0xFD	; 253
    1d6c:	80 83       	st	Z, r24
		  TWI_statusReg.lastTransOK = 1;                 	// Set status bits to completed successfully. 		 
    1d6e:	80 91 6e 02 	lds	r24, 0x026E
    1d72:	81 60       	ori	r24, 0x01	; 1
    1d74:	80 93 6e 02 	sts	0x026E, r24
    1d78:	08 c0       	rjmp	.+16     	; 0x1d8a <__vector_19+0xca>
				 (0<<TWIE)|(1<<TWINT)|                      // Disable TWI Interrupt and clear the flag
				 (0<<TWEA)|(0<<TWSTA)|(1<<TWSTO)|           // Initiate a STOP condition.
				 (0<<TWWC);                                 //
		  break;      
		case TWI_ARB_LOST:          // Arbitration lost
		  TWI_TWSR_state = TWSR;  							// Store TWSR 	
    1d7a:	81 b1       	in	r24, 0x01	; 1
    1d7c:	80 93 6f 02 	sts	0x026F, r24
		  TWCR = (1<<TWEN)|                                 // TWI Interface enabled
    1d80:	85 ea       	ldi	r24, 0xA5	; 165
    1d82:	04 c0       	rjmp	.+8      	; 0x1d8c <__vector_19+0xcc>
				 (1<<TWIE)|(1<<TWINT)|                      // Enable TWI Interupt and clear the flag
				 (0<<TWEA)|(1<<TWSTA)|(0<<TWSTO)|           // Initiate a (RE)START condition.
				 (0<<TWWC);                                 //
		  break;
		default:     
		  TWI_TWSR_state = TWSR;                     		// Store TWSR 					
    1d84:	81 b1       	in	r24, 0x01	; 1
    1d86:	80 93 6f 02 	sts	0x026F, r24
		  TWCR = (1<<TWEN)|                                 // Enable TWI-interface and release TWI pins
    1d8a:	84 e9       	ldi	r24, 0x94	; 148
    1d8c:	86 bf       	out	0x36, r24	; 54
				 (0<<TWIE)|(1<<TWINT)|                      // Disable Interupt
				 (0<<TWEA)|(0<<TWSTA)|(1<<TWSTO)|           // No Signal requests
				 (0<<TWWC); 
		break;
	}
}
    1d8e:	ff 91       	pop	r31
    1d90:	ef 91       	pop	r30
    1d92:	9f 91       	pop	r25
    1d94:	8f 91       	pop	r24
    1d96:	3f 91       	pop	r19
    1d98:	2f 91       	pop	r18
    1d9a:	0f 90       	pop	r0
    1d9c:	0f be       	out	0x3f, r0	; 63
    1d9e:	0f 90       	pop	r0
    1da0:	1f 90       	pop	r1
    1da2:	18 95       	reti

00001da4 <BUMPERS_stateChanged_DUMMY>:
}

// -------------------------------
// Bumpers State changed handler:

void BUMPERS_stateChanged_DUMMY(void){}
    1da4:	08 95       	ret

00001da6 <BUMPERS_setStateChangedHandler>:
 * Use this function to set the Bumpers state change handler. 
 * 
 */
void BUMPERS_setStateChangedHandler(void (*bumperHandler)(void)) 
{
	BUMPERS_stateChangedHandler = bumperHandler;
    1da6:	90 93 ca 00 	sts	0x00CA, r25
    1daa:	80 93 c9 00 	sts	0x00C9, r24
}
    1dae:	08 95       	ret

00001db0 <MOTIONCONTROL_stateChanged_DUMMY>:
// MotionControl:

// -------------------------------
// MotionControl state changed handler:

void MOTIONCONTROL_stateChanged_DUMMY(void){}
    1db0:	08 95       	ret

00001db2 <MOTIONCONTROL_setStateChangedHandler>:
static void (*MOTIONCONTROL_stateChangedHandler)(void) = MOTIONCONTROL_stateChanged_DUMMY;

void MOTIONCONTROL_setStateChangedHandler(void (*motionControlHandler)(void)) 
{
	MOTIONCONTROL_stateChangedHandler = motionControlHandler;
    1db2:	90 93 d2 00 	sts	0x00D2, r25
    1db6:	80 93 d1 00 	sts	0x00D1, r24
}
    1dba:	08 95       	ret

00001dbc <IRCOMM_RC5dataReady_DUMMY>:
// RC5:

// -------------------------------
// RC5 Data reception Handler:

void IRCOMM_RC5dataReady_DUMMY(RC5data_t rc5data){}
    1dbc:	08 95       	ret

00001dbe <IRCOMM_setRC5DataReadyHandler>:
static void (*IRCOMM_RC5dataReadyHandler)(RC5data_t rc5data) = IRCOMM_RC5dataReady_DUMMY;

void IRCOMM_setRC5DataReadyHandler(void (*rc5Handler)(RC5data_t rc5data)) 
{
	IRCOMM_RC5dataReadyHandler = rc5Handler;
    1dbe:	90 93 cc 00 	sts	0x00CC, r25
    1dc2:	80 93 cb 00 	sts	0x00CB, r24
}
    1dc6:	08 95       	ret

00001dc8 <ACS_stateChanged_DUMMY>:
uint8_t obstacle_right;

// -------------------------------
// ACS State changed handler:

void ACS_stateChanged_DUMMY(void){}
    1dc8:	08 95       	ret

00001dca <ACS_setStateChangedHandler>:
static void (*ACS_stateChangedHandler)(void) = ACS_stateChanged_DUMMY;

void ACS_setStateChangedHandler(void (*acsHandler)(void)) 
{
	ACS_stateChangedHandler = acsHandler;
    1dca:	90 93 c8 00 	sts	0x00C8, r25
    1dce:	80 93 c7 00 	sts	0x00C7, r24
}
    1dd2:	08 95       	ret

00001dd4 <BATTERY_lowVoltage_DUMMY>:
// Battery Voltage Sensor:

// -------------------------------
// Low Battery Voltage Event Handler:

void BATTERY_lowVoltage_DUMMY(uint8_t isVoltageLow){}
    1dd4:	08 95       	ret

00001dd6 <BATTERY_setLowVoltageHandler>:
static void (*BATTERY_lowVoltageHandler)(uint8_t) = BATTERY_lowVoltage_DUMMY;

void BATTERY_setLowVoltageHandler(void (*lowVoltageHandler)(uint8_t)) 
{
	BATTERY_lowVoltageHandler = lowVoltageHandler;
    1dd6:	90 93 ce 00 	sts	0x00CE, r25
    1dda:	80 93 cd 00 	sts	0x00CD, r24
}
    1dde:	08 95       	ret

00001de0 <WDT_request_DUMMY>:
// WDT:

// -------------------------------
// WDT Request Event Handler:

void WDT_request_DUMMY(void){}
    1de0:	08 95       	ret

00001de2 <WDT_setRequestHandler>:
static void (*WDT_requestHandler)(void) = WDT_request_DUMMY;

void WDT_setRequestHandler(void (*requestHandler)(void)) 
{
	WDT_requestHandler = requestHandler;
    1de2:	90 93 d0 00 	sts	0x00D0, r25
    1de6:	80 93 cf 00 	sts	0x00CF, r24
}
    1dea:	08 95       	ret

00001dec <I2C_request_DUMMY>:
// I2C:

// -------------------------------
// I2C Request Event Handler:

void I2C_request_DUMMY(uint8_t errorState) {}
    1dec:	08 95       	ret

00001dee <I2C_setTransmissionErrorHandler>:
static void (*I2C_requestHandler)(uint8_t) = I2C_request_DUMMY;

void I2C_setTransmissionErrorHandler(void (*transmissionErrorHandler)(uint8_t)) 
{
   I2C_requestHandler = transmissionErrorHandler;
    1dee:	90 93 d4 00 	sts	0x00D4, r25
    1df2:	80 93 d3 00 	sts	0x00D3, r24
}
    1df6:	08 95       	ret

00001df8 <updateStatusLEDs>:
 * Same as on RP6Lib - takes value from statusLEDs register and sets LEDs
 * on the Mainboard.
 */
void updateStatusLEDs(void)
{
	I2CTWI_transmit3Bytes(I2C_RP6_BASE_ADR, 0, 3, statusLEDs.byte);
    1df8:	8a e0       	ldi	r24, 0x0A	; 10
    1dfa:	60 e0       	ldi	r22, 0x00	; 0
    1dfc:	43 e0       	ldi	r20, 0x03	; 3
    1dfe:	20 91 ef 02 	lds	r18, 0x02EF
    1e02:	0e 94 b5 0d 	call	0x1b6a	; 0x1b6a <I2CTWI_transmit3Bytes>
}
    1e06:	08 95       	ret

00001e08 <setRP6LEDs>:
 * We need to call it setRP6LEDs because setLEDs function is already
 * defined in RP6ControlLib.
 */
//inline void setRP6LEDs(uint8_t leds)
inline void setRP6LEDs(uint8_t leds)
{
    1e08:	28 2f       	mov	r18, r24
	statusLEDs.byte = leds;
    1e0a:	80 93 ef 02 	sts	0x02EF, r24
 * Same as on RP6Lib - takes value from statusLEDs register and sets LEDs
 * on the Mainboard.
 */
void updateStatusLEDs(void)
{
	I2CTWI_transmit3Bytes(I2C_RP6_BASE_ADR, 0, 3, statusLEDs.byte);
    1e0e:	8a e0       	ldi	r24, 0x0A	; 10
    1e10:	60 e0       	ldi	r22, 0x00	; 0
    1e12:	43 e0       	ldi	r20, 0x03	; 3
    1e14:	0e 94 b5 0d 	call	0x1b6a	; 0x1b6a <I2CTWI_transmit3Bytes>
//inline void setRP6LEDs(uint8_t leds)
inline void setRP6LEDs(uint8_t leds)
{
	statusLEDs.byte = leds;
	updateStatusLEDs();
}
    1e18:	08 95       	ret

00001e1a <changeDirection>:

/**
 * Change direction function - just the same as with RP6Lib!
 */
void changeDirection(uint8_t dir)
{
    1e1a:	28 2f       	mov	r18, r24
	I2CTWI_transmit3Bytes(I2C_RP6_BASE_ADR, 0, CMD_CHANGE_DIR, dir);
    1e1c:	8a e0       	ldi	r24, 0x0A	; 10
    1e1e:	60 e0       	ldi	r22, 0x00	; 0
    1e20:	46 e0       	ldi	r20, 0x06	; 6
    1e22:	0e 94 b5 0d 	call	0x1b6a	; 0x1b6a <I2CTWI_transmit3Bytes>
    1e26:	02 c0       	rjmp	.+4      	; 0x1e2c <changeDirection+0x12>
	while(I2CTWI_isBusy() || TWI_operation != I2CTWI_NO_OPERATION) task_I2CTWI();
    1e28:	0e 94 c8 0b 	call	0x1790	; 0x1790 <task_I2CTWI>
    1e2c:	06 b6       	in	r0, 0x36	; 54
    1e2e:	00 fc       	sbrc	r0, 0
    1e30:	fb cf       	rjmp	.-10     	; 0x1e28 <changeDirection+0xe>
    1e32:	80 91 75 02 	lds	r24, 0x0275
    1e36:	88 23       	and	r24, r24
    1e38:	b9 f7       	brne	.-18     	; 0x1e28 <changeDirection+0xe>
}
    1e3a:	08 95       	ret

00001e3c <moveAtSpeed>:

/**
 * Move at speed function - just the same as with RP6Lib!
 */
void moveAtSpeed(uint8_t desired_speed_left, uint8_t desired_speed_right)
{
    1e3c:	0f 93       	push	r16
    1e3e:	28 2f       	mov	r18, r24
    1e40:	06 2f       	mov	r16, r22
	I2CTWI_transmit4Bytes(I2C_RP6_BASE_ADR, 0, CMD_MOVE_AT_SPEED, desired_speed_left, desired_speed_right );
    1e42:	8a e0       	ldi	r24, 0x0A	; 10
    1e44:	60 e0       	ldi	r22, 0x00	; 0
    1e46:	45 e0       	ldi	r20, 0x05	; 5
    1e48:	0e 94 ea 0d 	call	0x1bd4	; 0x1bd4 <I2CTWI_transmit4Bytes>
    1e4c:	02 c0       	rjmp	.+4      	; 0x1e52 <moveAtSpeed+0x16>
	while(I2CTWI_isBusy() || TWI_operation != I2CTWI_NO_OPERATION) task_I2CTWI();
    1e4e:	0e 94 c8 0b 	call	0x1790	; 0x1790 <task_I2CTWI>
    1e52:	06 b6       	in	r0, 0x36	; 54
    1e54:	00 fc       	sbrc	r0, 0
    1e56:	fb cf       	rjmp	.-10     	; 0x1e4e <moveAtSpeed+0x12>
    1e58:	80 91 75 02 	lds	r24, 0x0275
    1e5c:	88 23       	and	r24, r24
    1e5e:	b9 f7       	brne	.-18     	; 0x1e4e <moveAtSpeed+0x12>
}
    1e60:	0f 91       	pop	r16
    1e62:	08 95       	ret

00001e64 <checkRP6Status>:
 * It returns true if it was a INT0 request and false otherwise.
 * This way you can check if it was a request that you initiated or a 
 * request initiated in the library...
 */
uint8_t checkRP6Status(uint8_t dataRequestID)
{
    1e64:	0f 93       	push	r16
    1e66:	1f 93       	push	r17
    1e68:	df 93       	push	r29
    1e6a:	cf 93       	push	r28
    1e6c:	00 d0       	rcall	.+0      	; 0x1e6e <checkRP6Status+0xa>
    1e6e:	cd b7       	in	r28, 0x3d	; 61
    1e70:	de b7       	in	r29, 0x3e	; 62
	if(dataRequestID == INT0_STATUS_CHECK) 
    1e72:	88 23       	and	r24, r24
    1e74:	11 f0       	breq	.+4      	; 0x1e7a <checkRP6Status+0x16>
    1e76:	80 e0       	ldi	r24, 0x00	; 0
    1e78:	90 c0       	rjmp	.+288    	; 0x1f9a <checkRP6Status+0x136>
	{            
                         
		// get received data: 
		I2CTWI_getReceivedData(messageBuf, 3);
    1e7a:	8f e6       	ldi	r24, 0x6F	; 111
    1e7c:	93 e0       	ldi	r25, 0x03	; 3
    1e7e:	63 e0       	ldi	r22, 0x03	; 3
    1e80:	0e 94 85 0c 	call	0x190a	; 0x190a <I2CTWI_getReceivedData>
		
		// We want to check if the ACS status bits have changed, so we XOR 
		// ('^' is eXclusive OR operator) them with old 
		// value for comparison and later mask them in the if conditions below...
		uint8_t compare = messageBuf[0] ^ interrupt_status.byte;
    1e84:	20 91 6f 03 	lds	r18, 0x036F
    1e88:	80 91 e1 02 	lds	r24, 0x02E1
    1e8c:	82 27       	eor	r24, r18
		interrupt_status.byte = messageBuf[0]; // Update local register
    1e8e:	20 93 e1 02 	sts	0x02E1, r18

		// ------------------------------------
		// First, we check if the ACS status bits have changed, if not
		// we can just ignore the change as it was something else
		// and we only check the ACS bits in this example...
		if(compare & MASK_ACS) 
    1e92:	08 2f       	mov	r16, r24
    1e94:	10 e0       	ldi	r17, 0x00	; 0
    1e96:	c8 01       	movw	r24, r16
    1e98:	80 76       	andi	r24, 0x60	; 96
    1e9a:	90 70       	andi	r25, 0x00	; 0
    1e9c:	89 2b       	or	r24, r25
    1e9e:	81 f0       	breq	.+32     	; 0x1ec0 <checkRP6Status+0x5c>
		{
			obstacle_left = interrupt_status.obstacleLeft;
    1ea0:	22 95       	swap	r18
    1ea2:	26 95       	lsr	r18
    1ea4:	27 70       	andi	r18, 0x07	; 7
    1ea6:	82 2f       	mov	r24, r18
    1ea8:	81 70       	andi	r24, 0x01	; 1
    1eaa:	80 93 5d 03 	sts	0x035D, r24
			obstacle_right = interrupt_status.obstacleRight;
    1eae:	26 95       	lsr	r18
    1eb0:	21 70       	andi	r18, 0x01	; 1
    1eb2:	20 93 60 03 	sts	0x0360, r18
			ACS_stateChangedHandler();
    1eb6:	e0 91 c7 00 	lds	r30, 0x00C7
    1eba:	f0 91 c8 00 	lds	r31, 0x00C8
    1ebe:	09 95       	icall
		}
		
		// ------------------------------------
		// Check if Bumpers status has changed:
		if(compare & MASK_BUMPER) 
    1ec0:	c8 01       	movw	r24, r16
    1ec2:	86 70       	andi	r24, 0x06	; 6
    1ec4:	90 70       	andi	r25, 0x00	; 0
    1ec6:	89 2b       	or	r24, r25
    1ec8:	81 f0       	breq	.+32     	; 0x1eea <checkRP6Status+0x86>
		{
			bumper_left = interrupt_status.bumperLeft;
    1eca:	80 91 e1 02 	lds	r24, 0x02E1
    1ece:	86 95       	lsr	r24
    1ed0:	98 2f       	mov	r25, r24
    1ed2:	91 70       	andi	r25, 0x01	; 1
    1ed4:	90 93 3b 03 	sts	0x033B, r25
			bumper_right = interrupt_status.bumperRight;
    1ed8:	86 95       	lsr	r24
    1eda:	81 70       	andi	r24, 0x01	; 1
    1edc:	80 93 6a 03 	sts	0x036A, r24
			BUMPERS_stateChangedHandler();
    1ee0:	e0 91 c9 00 	lds	r30, 0x00C9
    1ee4:	f0 91 ca 00 	lds	r31, 0x00CA
    1ee8:	09 95       	icall
		}

		// ------------------------------------
		// Check if there was a RC5 Reception:
		uint8_t readBuf[2];
		if(compare & MASK_RC5) 
    1eea:	03 ff       	sbrs	r16, 3
    1eec:	1c c0       	rjmp	.+56     	; 0x1f26 <checkRP6Status+0xc2>
		{
			I2CTWI_transmitByte(I2C_RP6_BASE_ADR,I2C_REG_RC5_ADR);
    1eee:	8a e0       	ldi	r24, 0x0A	; 10
    1ef0:	6b e1       	ldi	r22, 0x1B	; 27
    1ef2:	0e 94 5a 0d 	call	0x1ab4	; 0x1ab4 <I2CTWI_transmitByte>
			I2CTWI_readBytes(I2C_RP6_BASE_ADR, readBuf, 2);
    1ef6:	8a e0       	ldi	r24, 0x0A	; 10
    1ef8:	be 01       	movw	r22, r28
    1efa:	6f 5f       	subi	r22, 0xFF	; 255
    1efc:	7f 4f       	sbci	r23, 0xFF	; 255
    1efe:	42 e0       	ldi	r20, 0x02	; 2
    1f00:	0e 94 db 0c 	call	0x19b6	; 0x19b6 <I2CTWI_readBytes>
			RC5data_t tmp;
			tmp.data = (readBuf[0] << 6) | (readBuf[1]);
    1f04:	29 81       	ldd	r18, Y+1	; 0x01
    1f06:	30 e0       	ldi	r19, 0x00	; 0
    1f08:	86 e0       	ldi	r24, 0x06	; 6
    1f0a:	22 0f       	add	r18, r18
    1f0c:	33 1f       	adc	r19, r19
    1f0e:	8a 95       	dec	r24
    1f10:	e1 f7       	brne	.-8      	; 0x1f0a <checkRP6Status+0xa6>
    1f12:	8a 81       	ldd	r24, Y+2	; 0x02
    1f14:	90 e0       	ldi	r25, 0x00	; 0
    1f16:	28 2b       	or	r18, r24
    1f18:	39 2b       	or	r19, r25
			IRCOMM_RC5dataReadyHandler(tmp);
    1f1a:	e0 91 cb 00 	lds	r30, 0x00CB
    1f1e:	f0 91 cc 00 	lds	r31, 0x00CC
    1f22:	c9 01       	movw	r24, r18
    1f24:	09 95       	icall
		}
		
		// ------------------------------------
		// Check for low Battery event:
		if(compare & MASK_BATLOW) 
    1f26:	00 ff       	sbrs	r16, 0
    1f28:	1d c0       	rjmp	.+58     	; 0x1f64 <checkRP6Status+0x100>
		{
			I2CTWI_transmitByte(I2C_RP6_BASE_ADR,I2C_REG_ADC_UBAT_L);
    1f2a:	8a e0       	ldi	r24, 0x0A	; 10
    1f2c:	65 e1       	ldi	r22, 0x15	; 21
    1f2e:	0e 94 5a 0d 	call	0x1ab4	; 0x1ab4 <I2CTWI_transmitByte>
			I2CTWI_readBytes(I2C_RP6_BASE_ADR, readBuf, 2);
    1f32:	8a e0       	ldi	r24, 0x0A	; 10
    1f34:	be 01       	movw	r22, r28
    1f36:	6f 5f       	subi	r22, 0xFF	; 255
    1f38:	7f 4f       	sbci	r23, 0xFF	; 255
    1f3a:	42 e0       	ldi	r20, 0x02	; 2
    1f3c:	0e 94 db 0c 	call	0x19b6	; 0x19b6 <I2CTWI_readBytes>
			adcBat = (readBuf[1] << 8) | (readBuf[0]);
    1f40:	9a 81       	ldd	r25, Y+2	; 0x02
    1f42:	80 e0       	ldi	r24, 0x00	; 0
    1f44:	29 81       	ldd	r18, Y+1	; 0x01
    1f46:	30 e0       	ldi	r19, 0x00	; 0
    1f48:	82 2b       	or	r24, r18
    1f4a:	93 2b       	or	r25, r19
    1f4c:	90 93 6c 03 	sts	0x036C, r25
    1f50:	80 93 6b 03 	sts	0x036B, r24
			BATTERY_lowVoltageHandler(interrupt_status.batLow);
    1f54:	80 91 e1 02 	lds	r24, 0x02E1
    1f58:	e0 91 cd 00 	lds	r30, 0x00CD
    1f5c:	f0 91 ce 00 	lds	r31, 0x00CE
    1f60:	81 70       	andi	r24, 0x01	; 1
    1f62:	09 95       	icall
		}
		
		// ------------------------------------
		// Check for WDT request:
		status.byte = messageBuf[1];
    1f64:	80 91 70 03 	lds	r24, 0x0370
    1f68:	80 93 f0 02 	sts	0x02F0, r24
		if(status.wdtRequest)
    1f6c:	83 ff       	sbrs	r24, 3
    1f6e:	05 c0       	rjmp	.+10     	; 0x1f7a <checkRP6Status+0x116>
			WDT_requestHandler();
    1f70:	e0 91 cf 00 	lds	r30, 0x00CF
    1f74:	f0 91 d0 00 	lds	r31, 0x00D0
    1f78:	09 95       	icall
		
		// ------------------------------------
		// Update drive Status:
		drive_status.byte = messageBuf[2];
    1f7a:	80 91 71 03 	lds	r24, 0x0371
    1f7e:	80 93 ee 02 	sts	0x02EE, r24
		if(interrupt_status.driveSystemChange)
    1f82:	80 91 e1 02 	lds	r24, 0x02E1
    1f86:	87 ff       	sbrs	r24, 7
    1f88:	05 c0       	rjmp	.+10     	; 0x1f94 <checkRP6Status+0x130>
		{
			MOTIONCONTROL_stateChangedHandler();
    1f8a:	e0 91 d1 00 	lds	r30, 0x00D1
    1f8e:	f0 91 d2 00 	lds	r31, 0x00D2
    1f92:	09 95       	icall
		}

		block = false; // clear block flag! 
    1f94:	10 92 b8 02 	sts	0x02B8, r1
    1f98:	81 e0       	ldi	r24, 0x01	; 1
		return true; // It was an INT0 request --> return true;
	}
	return false; // It was not an INT0 request --> return false
}
    1f9a:	0f 90       	pop	r0
    1f9c:	0f 90       	pop	r0
    1f9e:	cf 91       	pop	r28
    1fa0:	df 91       	pop	r29
    1fa2:	1f 91       	pop	r17
    1fa4:	0f 91       	pop	r16
    1fa6:	08 95       	ret

00001fa8 <I2C_requestedDataReady>:

//TODO: bes: requestedDataHandler now absorbs al information of data request...
//           requests from other devices will be lost...
void I2C_requestedDataReady(uint8_t dataRequestID)
{
	checkRP6Status(dataRequestID);
    1fa8:	0e 94 32 0f 	call	0x1e64	; 0x1e64 <checkRP6Status>
	//TODO: bes: if lost call other registered I2C handler
}
    1fac:	08 95       	ret

00001fae <task_checkINT0>:
 * They are checked in the requested data ready handler which should call
 * the function checkRP6Status below. 
 */
void task_checkINT0(void)
{
	if(!block && (PIND & EINT1)) 
    1fae:	80 91 b8 02 	lds	r24, 0x02B8
    1fb2:	88 23       	and	r24, r24
    1fb4:	59 f4       	brne	.+22     	; 0x1fcc <task_checkINT0+0x1e>
    1fb6:	82 9b       	sbis	0x10, 2	; 16
    1fb8:	09 c0       	rjmp	.+18     	; 0x1fcc <task_checkINT0+0x1e>
	{
		block = true; // Block further requests and wait until 
    1fba:	81 e0       	ldi	r24, 0x01	; 1
    1fbc:	80 93 b8 02 	sts	0x02B8, r24
					  // this request has been processed.
		I2CTWI_requestRegisterFromDevice(I2C_RP6_BASE_ADR, INT0_STATUS_CHECK, 0, 3);
    1fc0:	8a e0       	ldi	r24, 0x0A	; 10
    1fc2:	60 e0       	ldi	r22, 0x00	; 0
    1fc4:	40 e0       	ldi	r20, 0x00	; 0
    1fc6:	23 e0       	ldi	r18, 0x03	; 3
    1fc8:	0e 94 61 0c 	call	0x18c2	; 0x18c2 <I2CTWI_requestRegisterFromDevice>
    1fcc:	08 95       	ret

00001fce <waitForTransmitComplete>:
 * has been transmitted and is active. It takes some time until the 
 * movement register gets updated via the I2C Bus and the function behaves like 
 * with the RP6Lib - especially the drive_status.movementComplete flag!
 */
void waitForTransmitComplete(void)
{
    1fce:	02 c0       	rjmp	.+4      	; 0x1fd4 <waitForTransmitComplete+0x6>
	while(I2CTWI_isBusy() || TWI_operation != I2CTWI_NO_OPERATION) task_I2CTWI();
    1fd0:	0e 94 c8 0b 	call	0x1790	; 0x1790 <task_I2CTWI>
    1fd4:	06 b6       	in	r0, 0x36	; 54
    1fd6:	00 fc       	sbrc	r0, 0
    1fd8:	fb cf       	rjmp	.-10     	; 0x1fd0 <waitForTransmitComplete+0x2>
    1fda:	80 91 75 02 	lds	r24, 0x0275
    1fde:	88 23       	and	r24, r24
    1fe0:	b9 f7       	brne	.-18     	; 0x1fd0 <waitForTransmitComplete+0x2>
	mSleep(6);
    1fe2:	86 e0       	ldi	r24, 0x06	; 6
    1fe4:	90 e0       	ldi	r25, 0x00	; 0
    1fe6:	0e 94 f4 09 	call	0x13e8	; 0x13e8 <mSleep>
	task_checkINT0();
    1fea:	0e 94 d7 0f 	call	0x1fae	; 0x1fae <task_checkINT0>
    1fee:	02 c0       	rjmp	.+4      	; 0x1ff4 <waitForTransmitComplete+0x26>
	while(I2CTWI_isBusy() || TWI_operation != I2CTWI_NO_OPERATION) task_I2CTWI();
    1ff0:	0e 94 c8 0b 	call	0x1790	; 0x1790 <task_I2CTWI>
    1ff4:	06 b6       	in	r0, 0x36	; 54
    1ff6:	00 fc       	sbrc	r0, 0
    1ff8:	fb cf       	rjmp	.-10     	; 0x1ff0 <waitForTransmitComplete+0x22>
    1ffa:	80 91 75 02 	lds	r24, 0x0275
    1ffe:	88 23       	and	r24, r24
    2000:	b9 f7       	brne	.-18     	; 0x1ff0 <waitForTransmitComplete+0x22>
}
    2002:	08 95       	ret

00002004 <stop>:
/**
 * Stop function - just the same as with RP6Lib!
 */
void stop(void)
{
	I2CTWI_transmit2Bytes(I2C_RP6_BASE_ADR, 0, CMD_STOP);
    2004:	8a e0       	ldi	r24, 0x0A	; 10
    2006:	60 e0       	ldi	r22, 0x00	; 0
    2008:	44 e0       	ldi	r20, 0x04	; 4
    200a:	0e 94 85 0d 	call	0x1b0a	; 0x1b0a <I2CTWI_transmit2Bytes>
	waitForTransmitComplete();
    200e:	0e 94 e7 0f 	call	0x1fce	; 0x1fce <waitForTransmitComplete>
}
    2012:	08 95       	ret

00002014 <move>:

/**
 * Move function - just the same as with RP6Lib!
 */
void move(uint8_t desired_speed, uint8_t dir, uint16_t distance, uint8_t blocking)
{
    2014:	1f 93       	push	r17
    2016:	12 2f       	mov	r17, r18
	transmit_buffer[0] = 0;
    2018:	10 92 e4 02 	sts	0x02E4, r1
	transmit_buffer[1] = CMD_MOVE;
    201c:	97 e0       	ldi	r25, 0x07	; 7
    201e:	90 93 e5 02 	sts	0x02E5, r25
	transmit_buffer[2] = desired_speed;
    2022:	80 93 e6 02 	sts	0x02E6, r24
	transmit_buffer[3] = dir;
    2026:	60 93 e7 02 	sts	0x02E7, r22
	transmit_buffer[4] = ((distance>>8) & 0xFF);
    202a:	50 93 e8 02 	sts	0x02E8, r21
	transmit_buffer[5] = (distance & 0xFF);
    202e:	40 93 e9 02 	sts	0x02E9, r20
	I2CTWI_transmitBytes(I2C_RP6_BASE_ADR, transmit_buffer, 6 );
    2032:	8a e0       	ldi	r24, 0x0A	; 10
    2034:	64 ee       	ldi	r22, 0xE4	; 228
    2036:	72 e0       	ldi	r23, 0x02	; 2
    2038:	46 e0       	ldi	r20, 0x06	; 6
    203a:	0e 94 23 0e 	call	0x1c46	; 0x1c46 <I2CTWI_transmitBytes>
	waitForTransmitComplete();
    203e:	0e 94 e7 0f 	call	0x1fce	; 0x1fce <waitForTransmitComplete>
	while(blocking && !drive_status.movementComplete) 
    2042:	11 23       	and	r17, r17
    2044:	49 f0       	breq	.+18     	; 0x2058 <move+0x44>
    2046:	04 c0       	rjmp	.+8      	; 0x2050 <move+0x3c>
	{
		task_checkINT0();
    2048:	0e 94 d7 0f 	call	0x1fae	; 0x1fae <task_checkINT0>
		task_I2CTWI();
    204c:	0e 94 c8 0b 	call	0x1790	; 0x1790 <task_I2CTWI>
	transmit_buffer[3] = dir;
	transmit_buffer[4] = ((distance>>8) & 0xFF);
	transmit_buffer[5] = (distance & 0xFF);
	I2CTWI_transmitBytes(I2C_RP6_BASE_ADR, transmit_buffer, 6 );
	waitForTransmitComplete();
	while(blocking && !drive_status.movementComplete) 
    2050:	80 91 ee 02 	lds	r24, 0x02EE
    2054:	80 ff       	sbrs	r24, 0
    2056:	f8 cf       	rjmp	.-16     	; 0x2048 <move+0x34>
	{
		task_checkINT0();
		task_I2CTWI();
	}
}
    2058:	1f 91       	pop	r17
    205a:	08 95       	ret

0000205c <rotate>:

/**
 * Rotate function - just the same as with RP6Lib!
 */
void rotate(uint8_t desired_speed, uint8_t dir, uint16_t angle, uint8_t blocking)
{
    205c:	1f 93       	push	r17
    205e:	12 2f       	mov	r17, r18
	transmit_buffer[0] = 0;
    2060:	10 92 e4 02 	sts	0x02E4, r1
	transmit_buffer[1] = CMD_ROTATE;
    2064:	98 e0       	ldi	r25, 0x08	; 8
    2066:	90 93 e5 02 	sts	0x02E5, r25
	transmit_buffer[2] = desired_speed;
    206a:	80 93 e6 02 	sts	0x02E6, r24
	transmit_buffer[3] = dir;
    206e:	60 93 e7 02 	sts	0x02E7, r22
	transmit_buffer[4] = ((angle>>8) & 0xFF);
    2072:	50 93 e8 02 	sts	0x02E8, r21
	transmit_buffer[5] = (angle & 0xFF);
    2076:	40 93 e9 02 	sts	0x02E9, r20
	I2CTWI_transmitBytes(I2C_RP6_BASE_ADR, transmit_buffer, 6 );
    207a:	8a e0       	ldi	r24, 0x0A	; 10
    207c:	64 ee       	ldi	r22, 0xE4	; 228
    207e:	72 e0       	ldi	r23, 0x02	; 2
    2080:	46 e0       	ldi	r20, 0x06	; 6
    2082:	0e 94 23 0e 	call	0x1c46	; 0x1c46 <I2CTWI_transmitBytes>
	// We need to wait until the I2C Bus transfer is complete and then 
	// check the movement status...
	waitForTransmitComplete();
    2086:	0e 94 e7 0f 	call	0x1fce	; 0x1fce <waitForTransmitComplete>
	while(blocking && !drive_status.movementComplete) 
    208a:	11 23       	and	r17, r17
    208c:	49 f0       	breq	.+18     	; 0x20a0 <rotate+0x44>
    208e:	04 c0       	rjmp	.+8      	; 0x2098 <rotate+0x3c>
	{
		task_checkINT0();
    2090:	0e 94 d7 0f 	call	0x1fae	; 0x1fae <task_checkINT0>
		task_I2CTWI();
    2094:	0e 94 c8 0b 	call	0x1790	; 0x1790 <task_I2CTWI>
	transmit_buffer[5] = (angle & 0xFF);
	I2CTWI_transmitBytes(I2C_RP6_BASE_ADR, transmit_buffer, 6 );
	// We need to wait until the I2C Bus transfer is complete and then 
	// check the movement status...
	waitForTransmitComplete();
	while(blocking && !drive_status.movementComplete) 
    2098:	80 91 ee 02 	lds	r24, 0x02EE
    209c:	80 ff       	sbrs	r24, 0
    209e:	f8 cf       	rjmp	.-16     	; 0x2090 <rotate+0x34>
	{
		task_checkINT0();
		task_I2CTWI();
	}
}
    20a0:	1f 91       	pop	r17
    20a2:	08 95       	ret

000020a4 <getBatteryLevel>:
	adcLSR = sensorBuf[2] + (sensorBuf[3]<<8);
}

int getBatteryLevel(void)
{
	I2CTWI_readRegisters(I2C_RP6_BASE_ADR, I2C_REG_ADC_UBAT_L, sensorBuf, 2);
    20a4:	8a e0       	ldi	r24, 0x0A	; 10
    20a6:	65 e1       	ldi	r22, 0x15	; 21
    20a8:	4c e3       	ldi	r20, 0x3C	; 60
    20aa:	53 e0       	ldi	r21, 0x03	; 3
    20ac:	22 e0       	ldi	r18, 0x02	; 2
    20ae:	0e 94 a0 0c 	call	0x1940	; 0x1940 <I2CTWI_readRegisters>
	adcBat = sensorBuf[0] + (sensorBuf[1]<<8);
    20b2:	30 91 3d 03 	lds	r19, 0x033D
    20b6:	20 e0       	ldi	r18, 0x00	; 0
    20b8:	80 91 3c 03 	lds	r24, 0x033C
    20bc:	28 0f       	add	r18, r24
    20be:	31 1d       	adc	r19, r1
    20c0:	30 93 6c 03 	sts	0x036C, r19
    20c4:	20 93 6b 03 	sts	0x036B, r18
	return adcBat;
}
    20c8:	c9 01       	movw	r24, r18
    20ca:	08 95       	ret

000020cc <getLightSensors>:
/**
 *
 */
void getLightSensors(void)
{
	I2CTWI_readRegisters(I2C_RP6_BASE_ADR, I2C_REG_ADC_LSL_L, sensorBuf, 4);
    20cc:	8a e0       	ldi	r24, 0x0A	; 10
    20ce:	6d e0       	ldi	r22, 0x0D	; 13
    20d0:	4c e3       	ldi	r20, 0x3C	; 60
    20d2:	53 e0       	ldi	r21, 0x03	; 3
    20d4:	24 e0       	ldi	r18, 0x04	; 4
    20d6:	0e 94 a0 0c 	call	0x1940	; 0x1940 <I2CTWI_readRegisters>
	adcLSL = sensorBuf[0] + (sensorBuf[1]<<8);
    20da:	90 91 3d 03 	lds	r25, 0x033D
    20de:	80 e0       	ldi	r24, 0x00	; 0
    20e0:	20 91 3c 03 	lds	r18, 0x033C
    20e4:	82 0f       	add	r24, r18
    20e6:	91 1d       	adc	r25, r1
    20e8:	90 93 5b 03 	sts	0x035B, r25
    20ec:	80 93 5a 03 	sts	0x035A, r24
	adcLSR = sensorBuf[2] + (sensorBuf[3]<<8);
    20f0:	90 91 3f 03 	lds	r25, 0x033F
    20f4:	80 e0       	ldi	r24, 0x00	; 0
    20f6:	20 91 3e 03 	lds	r18, 0x033E
    20fa:	82 0f       	add	r24, r18
    20fc:	91 1d       	adc	r25, r1
    20fe:	90 93 5f 03 	sts	0x035F, r25
    2102:	80 93 5e 03 	sts	0x035E, r24
}
    2106:	08 95       	ret

00002108 <getAllSensors>:
 * Of course this function needs some time to read all these
 * 24 registers via the I2C Bus. 
 */
void getAllSensors(void)
{
	I2CTWI_readRegisters(I2C_RP6_BASE_ADR, I2C_REG_POWER_LEFT, sensorBuf, 24);
    2108:	8a e0       	ldi	r24, 0x0A	; 10
    210a:	63 e0       	ldi	r22, 0x03	; 3
    210c:	4c e3       	ldi	r20, 0x3C	; 60
    210e:	53 e0       	ldi	r21, 0x03	; 3
    2110:	28 e1       	ldi	r18, 0x18	; 24
    2112:	0e 94 a0 0c 	call	0x1940	; 0x1940 <I2CTWI_readRegisters>
	mleft_power = sensorBuf[0];
    2116:	80 91 3c 03 	lds	r24, 0x033C
    211a:	80 93 56 03 	sts	0x0356, r24
	mright_power = sensorBuf[1];
    211e:	80 91 3d 03 	lds	r24, 0x033D
    2122:	80 93 5c 03 	sts	0x035C, r24
	mleft_speed = sensorBuf[2];
    2126:	80 91 3e 03 	lds	r24, 0x033E
    212a:	80 93 57 03 	sts	0x0357, r24
	mright_speed = sensorBuf[3];
    212e:	80 91 3f 03 	lds	r24, 0x033F
    2132:	80 93 69 03 	sts	0x0369, r24
	mleft_des_speed = sensorBuf[4];
    2136:	80 91 40 03 	lds	r24, 0x0340
    213a:	80 93 55 03 	sts	0x0355, r24
	mright_des_speed = sensorBuf[5];
    213e:	80 91 41 03 	lds	r24, 0x0341
    2142:	80 93 54 03 	sts	0x0354, r24
	mleft_dist = sensorBuf[6] + (sensorBuf[7]<<8);
    2146:	90 91 43 03 	lds	r25, 0x0343
    214a:	80 e0       	ldi	r24, 0x00	; 0
    214c:	20 91 42 03 	lds	r18, 0x0342
    2150:	82 0f       	add	r24, r18
    2152:	91 1d       	adc	r25, r1
    2154:	90 93 68 03 	sts	0x0368, r25
    2158:	80 93 67 03 	sts	0x0367, r24
	mright_dist = sensorBuf[8] + (sensorBuf[9]<<8);
    215c:	90 91 45 03 	lds	r25, 0x0345
    2160:	80 e0       	ldi	r24, 0x00	; 0
    2162:	20 91 44 03 	lds	r18, 0x0344
    2166:	82 0f       	add	r24, r18
    2168:	91 1d       	adc	r25, r1
    216a:	90 93 62 03 	sts	0x0362, r25
    216e:	80 93 61 03 	sts	0x0361, r24
	adcLSL = sensorBuf[10] + (sensorBuf[11]<<8);
    2172:	90 91 47 03 	lds	r25, 0x0347
    2176:	80 e0       	ldi	r24, 0x00	; 0
    2178:	20 91 46 03 	lds	r18, 0x0346
    217c:	82 0f       	add	r24, r18
    217e:	91 1d       	adc	r25, r1
    2180:	90 93 5b 03 	sts	0x035B, r25
    2184:	80 93 5a 03 	sts	0x035A, r24
	adcLSR = sensorBuf[12] + (sensorBuf[13]<<8);
    2188:	90 91 49 03 	lds	r25, 0x0349
    218c:	80 e0       	ldi	r24, 0x00	; 0
    218e:	20 91 48 03 	lds	r18, 0x0348
    2192:	82 0f       	add	r24, r18
    2194:	91 1d       	adc	r25, r1
    2196:	90 93 5f 03 	sts	0x035F, r25
    219a:	80 93 5e 03 	sts	0x035E, r24
	adcMotorCurrentLeft = sensorBuf[14] + (sensorBuf[15]<<8);
    219e:	90 91 4b 03 	lds	r25, 0x034B
    21a2:	80 e0       	ldi	r24, 0x00	; 0
    21a4:	20 91 4a 03 	lds	r18, 0x034A
    21a8:	82 0f       	add	r24, r18
    21aa:	91 1d       	adc	r25, r1
    21ac:	90 93 6e 03 	sts	0x036E, r25
    21b0:	80 93 6d 03 	sts	0x036D, r24
	adcMotorCurrentRight = sensorBuf[16] + (sensorBuf[17]<<8);
    21b4:	90 91 4d 03 	lds	r25, 0x034D
    21b8:	80 e0       	ldi	r24, 0x00	; 0
    21ba:	20 91 4c 03 	lds	r18, 0x034C
    21be:	82 0f       	add	r24, r18
    21c0:	91 1d       	adc	r25, r1
    21c2:	90 93 66 03 	sts	0x0366, r25
    21c6:	80 93 65 03 	sts	0x0365, r24
	adcBat = sensorBuf[18] + (sensorBuf[19]<<8);
    21ca:	90 91 4f 03 	lds	r25, 0x034F
    21ce:	80 e0       	ldi	r24, 0x00	; 0
    21d0:	20 91 4e 03 	lds	r18, 0x034E
    21d4:	82 0f       	add	r24, r18
    21d6:	91 1d       	adc	r25, r1
    21d8:	90 93 6c 03 	sts	0x036C, r25
    21dc:	80 93 6b 03 	sts	0x036B, r24
	adc0 = sensorBuf[20] + (sensorBuf[21]<<8);
    21e0:	90 91 51 03 	lds	r25, 0x0351
    21e4:	80 e0       	ldi	r24, 0x00	; 0
    21e6:	20 91 50 03 	lds	r18, 0x0350
    21ea:	82 0f       	add	r24, r18
    21ec:	91 1d       	adc	r25, r1
    21ee:	90 93 64 03 	sts	0x0364, r25
    21f2:	80 93 63 03 	sts	0x0363, r24
	adc1 = sensorBuf[22] + (sensorBuf[23]<<8);
    21f6:	90 91 53 03 	lds	r25, 0x0353
    21fa:	80 e0       	ldi	r24, 0x00	; 0
    21fc:	20 91 52 03 	lds	r18, 0x0352
    2200:	82 0f       	add	r24, r18
    2202:	91 1d       	adc	r25, r1
    2204:	90 93 59 03 	sts	0x0359, r25
    2208:	80 93 58 03 	sts	0x0358, r24
}
    220c:	08 95       	ret

0000220e <initI2C_RP6Lib>:
	checkRP6Status(dataRequestID);
	//TODO: bes: if lost call other registered I2C handler
}

void initI2C_RP6Lib(void) {
	I2CTWI_initMaster(RP6_MASTERLIB_I2C_ADDRESS);  
    220e:	88 e4       	ldi	r24, 0x48	; 72
    2210:	0e 94 9e 0b 	call	0x173c	; 0x173c <__I2CTWI_initMaster>
	I2CTWI_setRequestedDataReadyHandler(I2C_requestedDataReady);
    2214:	84 ed       	ldi	r24, 0xD4	; 212
    2216:	9f e0       	ldi	r25, 0x0F	; 15
    2218:	0e 94 ad 0b 	call	0x175a	; 0x175a <I2CTWI_setRequestedDataReadyHandler>
	
}
    221c:	08 95       	ret

0000221e <UnitySetSetUpTearDown>:
UnityTestFunction tearDownFunc = NULL;

void UnitySetSetUpTearDown(UnityTestFunction mySetupFunc, 
			   UnityTestFunction myTearDownFunc )
{
	setUpFunc = mySetupFunc;
    221e:	90 93 de 02 	sts	0x02DE, r25
    2222:	80 93 dd 02 	sts	0x02DD, r24
	tearDownFunc = myTearDownFunc;
    2226:	70 93 e0 02 	sts	0x02E0, r23
    222a:	60 93 df 02 	sts	0x02DF, r22
}
    222e:	08 95       	ret

00002230 <UnityResetSetUpTearDownFunc>:

void UnityResetSetUpTearDownFunc(void) {
	setUpFunc = NULL;
    2230:	10 92 de 02 	sts	0x02DE, r1
    2234:	10 92 dd 02 	sts	0x02DD, r1
	tearDownFunc = NULL;
    2238:	10 92 e0 02 	sts	0x02E0, r1
    223c:	10 92 df 02 	sts	0x02DF, r1
}
    2240:	08 95       	ret

00002242 <UnityBegin>:
}

//-----------------------------------------------
void UnityBegin(void)
{
    Unity.NumberOfTests = 0;
    2242:	10 92 c1 02 	sts	0x02C1, r1
}
    2246:	08 95       	ret

00002248 <UnityPrintMask>:
    }
}

//-----------------------------------------------
void UnityPrintMask(const _U_UINT mask, const _U_UINT number)
{
    2248:	6f 92       	push	r6
    224a:	7f 92       	push	r7
    224c:	8f 92       	push	r8
    224e:	9f 92       	push	r9
    2250:	af 92       	push	r10
    2252:	bf 92       	push	r11
    2254:	cf 92       	push	r12
    2256:	df 92       	push	r13
    2258:	ef 92       	push	r14
    225a:	ff 92       	push	r15
    225c:	0f 93       	push	r16
    225e:	1f 93       	push	r17
    2260:	cf 93       	push	r28
    2262:	df 93       	push	r29
    2264:	3b 01       	movw	r6, r22
    2266:	4c 01       	movw	r8, r24
    2268:	59 01       	movw	r10, r18
    226a:	6a 01       	movw	r12, r20
    226c:	e1 2c       	mov	r14, r1
    226e:	90 e8       	ldi	r25, 0x80	; 128
    2270:	f9 2e       	mov	r15, r25
    2272:	01 2d       	mov	r16, r1
    2274:	11 2d       	mov	r17, r1
    2276:	c0 e0       	ldi	r28, 0x00	; 0
    2278:	d0 e0       	ldi	r29, 0x00	; 0
    _U_UINT current_bit = (_U_UINT)1 << (UNITY_INT_WIDTH - 1);
    _US32 i;

    for (i = 0; i < UNITY_INT_WIDTH; i++)
    {
        if (current_bit & mask)
    227a:	d8 01       	movw	r26, r16
    227c:	c7 01       	movw	r24, r14
    227e:	86 21       	and	r24, r6
    2280:	97 21       	and	r25, r7
    2282:	a8 21       	and	r26, r8
    2284:	b9 21       	and	r27, r9
    2286:	00 97       	sbiw	r24, 0x00	; 0
    2288:	a1 05       	cpc	r26, r1
    228a:	b1 05       	cpc	r27, r1
    228c:	c1 f0       	breq	.+48     	; 0x22be <UnityPrintMask+0x76>
        {
            if (current_bit & number)
    228e:	d8 01       	movw	r26, r16
    2290:	c7 01       	movw	r24, r14
    2292:	8a 21       	and	r24, r10
    2294:	9b 21       	and	r25, r11
    2296:	ac 21       	and	r26, r12
    2298:	bd 21       	and	r27, r13
    229a:	00 97       	sbiw	r24, 0x00	; 0
    229c:	a1 05       	cpc	r26, r1
    229e:	b1 05       	cpc	r27, r1
    22a0:	39 f0       	breq	.+14     	; 0x22b0 <UnityPrintMask+0x68>
            {
                UNITY_OUTPUT_CHAR('1');
    22a2:	60 91 81 03 	lds	r22, 0x0381
    22a6:	70 91 82 03 	lds	r23, 0x0382
    22aa:	81 e3       	ldi	r24, 0x31	; 49
    22ac:	90 e0       	ldi	r25, 0x00	; 0
    22ae:	0d c0       	rjmp	.+26     	; 0x22ca <UnityPrintMask+0x82>
            }
            else
            {
                UNITY_OUTPUT_CHAR('0');
    22b0:	60 91 81 03 	lds	r22, 0x0381
    22b4:	70 91 82 03 	lds	r23, 0x0382
    22b8:	80 e3       	ldi	r24, 0x30	; 48
    22ba:	90 e0       	ldi	r25, 0x00	; 0
    22bc:	06 c0       	rjmp	.+12     	; 0x22ca <UnityPrintMask+0x82>
            }
        }
        else
        {
            UNITY_OUTPUT_CHAR('X');
    22be:	60 91 81 03 	lds	r22, 0x0381
    22c2:	70 91 82 03 	lds	r23, 0x0382
    22c6:	88 e5       	ldi	r24, 0x58	; 88
    22c8:	90 e0       	ldi	r25, 0x00	; 0
    22ca:	0e 94 db 1e 	call	0x3db6	; 0x3db6 <fputc>
    22ce:	21 96       	adiw	r28, 0x01	; 1
void UnityPrintMask(const _U_UINT mask, const _U_UINT number)
{
    _U_UINT current_bit = (_U_UINT)1 << (UNITY_INT_WIDTH - 1);
    _US32 i;

    for (i = 0; i < UNITY_INT_WIDTH; i++)
    22d0:	c0 31       	cpi	r28, 0x10	; 16
    22d2:	d1 05       	cpc	r29, r1
    22d4:	29 f0       	breq	.+10     	; 0x22e0 <UnityPrintMask+0x98>
        }
        else
        {
            UNITY_OUTPUT_CHAR('X');
        }
        current_bit = current_bit >> 1;
    22d6:	16 95       	lsr	r17
    22d8:	07 95       	ror	r16
    22da:	f7 94       	ror	r15
    22dc:	e7 94       	ror	r14
    22de:	cd cf       	rjmp	.-102    	; 0x227a <UnityPrintMask+0x32>
    }
}
    22e0:	df 91       	pop	r29
    22e2:	cf 91       	pop	r28
    22e4:	1f 91       	pop	r17
    22e6:	0f 91       	pop	r16
    22e8:	ff 90       	pop	r15
    22ea:	ef 90       	pop	r14
    22ec:	df 90       	pop	r13
    22ee:	cf 90       	pop	r12
    22f0:	bf 90       	pop	r11
    22f2:	af 90       	pop	r10
    22f4:	9f 90       	pop	r9
    22f6:	8f 90       	pop	r8
    22f8:	7f 90       	pop	r7
    22fa:	6f 90       	pop	r6
    22fc:	08 95       	ret

000022fe <UnityPrintNumberHex>:
    while (divisor > 0);
}

//-----------------------------------------------
void UnityPrintNumberHex(const _U_UINT number, const char nibbles_to_print)
{
    22fe:	cf 92       	push	r12
    2300:	df 92       	push	r13
    2302:	ef 92       	push	r14
    2304:	ff 92       	push	r15
    2306:	1f 93       	push	r17
    2308:	6b 01       	movw	r12, r22
    230a:	7c 01       	movw	r14, r24
    230c:	14 2f       	mov	r17, r20
    _U_UINT nibble;
    char nibbles = nibbles_to_print;
    UNITY_OUTPUT_CHAR('0');
    230e:	60 91 81 03 	lds	r22, 0x0381
    2312:	70 91 82 03 	lds	r23, 0x0382
    2316:	80 e3       	ldi	r24, 0x30	; 48
    2318:	90 e0       	ldi	r25, 0x00	; 0
    231a:	0e 94 db 1e 	call	0x3db6	; 0x3db6 <fputc>
    UNITY_OUTPUT_CHAR('x');
    231e:	60 91 81 03 	lds	r22, 0x0381
    2322:	70 91 82 03 	lds	r23, 0x0382
    2326:	88 e7       	ldi	r24, 0x78	; 120
    2328:	90 e0       	ldi	r25, 0x00	; 0
    232a:	24 c0       	rjmp	.+72     	; 0x2374 <UnityPrintNumberHex+0x76>

    while (nibbles > 0)
    {
        nibble = (number >> (--nibbles << 2)) & 0x0000000F;
    232c:	11 50       	subi	r17, 0x01	; 1
    232e:	81 2f       	mov	r24, r17
    2330:	88 0f       	add	r24, r24
    2332:	88 0f       	add	r24, r24
    2334:	a7 01       	movw	r20, r14
    2336:	96 01       	movw	r18, r12
    2338:	04 c0       	rjmp	.+8      	; 0x2342 <UnityPrintNumberHex+0x44>
    233a:	56 95       	lsr	r21
    233c:	47 95       	ror	r20
    233e:	37 95       	ror	r19
    2340:	27 95       	ror	r18
    2342:	8a 95       	dec	r24
    2344:	d2 f7       	brpl	.-12     	; 0x233a <UnityPrintNumberHex+0x3c>
    2346:	da 01       	movw	r26, r20
    2348:	c9 01       	movw	r24, r18
    234a:	8f 70       	andi	r24, 0x0F	; 15
    234c:	90 70       	andi	r25, 0x00	; 0
    234e:	a0 70       	andi	r26, 0x00	; 0
    2350:	b0 70       	andi	r27, 0x00	; 0
        if (nibble <= 9)
    2352:	8a 30       	cpi	r24, 0x0A	; 10
    2354:	91 05       	cpc	r25, r1
    2356:	a1 05       	cpc	r26, r1
    2358:	b1 05       	cpc	r27, r1
    235a:	30 f4       	brcc	.+12     	; 0x2368 <UnityPrintNumberHex+0x6a>
        {
            UNITY_OUTPUT_CHAR((char)('0' + nibble));
    235c:	60 91 81 03 	lds	r22, 0x0381
    2360:	70 91 82 03 	lds	r23, 0x0382
    2364:	80 5d       	subi	r24, 0xD0	; 208
    2366:	05 c0       	rjmp	.+10     	; 0x2372 <UnityPrintNumberHex+0x74>
        }
        else
        {
            UNITY_OUTPUT_CHAR((char)('A' - 10 + nibble));
    2368:	60 91 81 03 	lds	r22, 0x0381
    236c:	70 91 82 03 	lds	r23, 0x0382
    2370:	89 5c       	subi	r24, 0xC9	; 201
    2372:	90 e0       	ldi	r25, 0x00	; 0
    2374:	0e 94 db 1e 	call	0x3db6	; 0x3db6 <fputc>
    _U_UINT nibble;
    char nibbles = nibbles_to_print;
    UNITY_OUTPUT_CHAR('0');
    UNITY_OUTPUT_CHAR('x');

    while (nibbles > 0)
    2378:	11 23       	and	r17, r17
    237a:	c1 f6       	brne	.-80     	; 0x232c <UnityPrintNumberHex+0x2e>
        else
        {
            UNITY_OUTPUT_CHAR((char)('A' - 10 + nibble));
        }
    }
}
    237c:	1f 91       	pop	r17
    237e:	ff 90       	pop	r15
    2380:	ef 90       	pop	r14
    2382:	df 90       	pop	r13
    2384:	cf 90       	pop	r12
    2386:	08 95       	ret

00002388 <UnityPrintNumberUnsigned>:
}

//-----------------------------------------------
/// basically do an itoa using as little ram as possible
void UnityPrintNumberUnsigned(const _U_UINT number)
{
    2388:	af 92       	push	r10
    238a:	bf 92       	push	r11
    238c:	cf 92       	push	r12
    238e:	df 92       	push	r13
    2390:	ef 92       	push	r14
    2392:	ff 92       	push	r15
    2394:	0f 93       	push	r16
    2396:	1f 93       	push	r17
    2398:	cf 93       	push	r28
    239a:	df 93       	push	r29
    239c:	5b 01       	movw	r10, r22
    239e:	6c 01       	movw	r12, r24
    23a0:	21 e0       	ldi	r18, 0x01	; 1
    23a2:	e2 2e       	mov	r14, r18
    23a4:	f1 2c       	mov	r15, r1
    23a6:	01 2d       	mov	r16, r1
    23a8:	11 2d       	mov	r17, r1
    23aa:	c0 e0       	ldi	r28, 0x00	; 0
    23ac:	d0 e0       	ldi	r29, 0x00	; 0
    23ae:	11 c0       	rjmp	.+34     	; 0x23d2 <UnityPrintNumberUnsigned+0x4a>
    _U_UINT next_divisor;

    // figure out initial divisor
    while (number / divisor > 9)
    {
        next_divisor = divisor * 10;
    23b0:	c8 01       	movw	r24, r16
    23b2:	b7 01       	movw	r22, r14
    23b4:	2a e0       	ldi	r18, 0x0A	; 10
    23b6:	30 e0       	ldi	r19, 0x00	; 0
    23b8:	40 e0       	ldi	r20, 0x00	; 0
    23ba:	50 e0       	ldi	r21, 0x00	; 0
    23bc:	0e 94 8c 1c 	call	0x3918	; 0x3918 <__mulsi3>
    23c0:	21 96       	adiw	r28, 0x01	; 1
        if (next_divisor > divisor)
    23c2:	cb 30       	cpi	r28, 0x0B	; 11
    23c4:	d1 05       	cpc	r29, r1
    23c6:	81 f0       	breq	.+32     	; 0x23e8 <UnityPrintNumberUnsigned+0x60>
            divisor = next_divisor;
        else
            break;
    23c8:	ac 01       	movw	r20, r24
    23ca:	cb 01       	movw	r24, r22
    23cc:	da 01       	movw	r26, r20
    23ce:	7c 01       	movw	r14, r24
    23d0:	8d 01       	movw	r16, r26
{
    _U_UINT divisor = 1;
    _U_UINT next_divisor;

    // figure out initial divisor
    while (number / divisor > 9)
    23d2:	c6 01       	movw	r24, r12
    23d4:	b5 01       	movw	r22, r10
    23d6:	a8 01       	movw	r20, r16
    23d8:	97 01       	movw	r18, r14
    23da:	0e 94 be 1c 	call	0x397c	; 0x397c <__udivmodsi4>
    23de:	2a 30       	cpi	r18, 0x0A	; 10
    23e0:	31 05       	cpc	r19, r1
    23e2:	41 05       	cpc	r20, r1
    23e4:	51 05       	cpc	r21, r1
    23e6:	20 f7       	brcc	.-56     	; 0x23b0 <UnityPrintNumberUnsigned+0x28>
    }

    // now mod and print, then divide divisor
    do
    {
        UNITY_OUTPUT_CHAR((char)('0' + (number / divisor % 10)));
    23e8:	c6 01       	movw	r24, r12
    23ea:	b5 01       	movw	r22, r10
    23ec:	a8 01       	movw	r20, r16
    23ee:	97 01       	movw	r18, r14
    23f0:	0e 94 be 1c 	call	0x397c	; 0x397c <__udivmodsi4>
    23f4:	ca 01       	movw	r24, r20
    23f6:	b9 01       	movw	r22, r18
    23f8:	2a e0       	ldi	r18, 0x0A	; 10
    23fa:	30 e0       	ldi	r19, 0x00	; 0
    23fc:	40 e0       	ldi	r20, 0x00	; 0
    23fe:	50 e0       	ldi	r21, 0x00	; 0
    2400:	0e 94 be 1c 	call	0x397c	; 0x397c <__udivmodsi4>
    2404:	86 2f       	mov	r24, r22
    2406:	60 91 81 03 	lds	r22, 0x0381
    240a:	70 91 82 03 	lds	r23, 0x0382
    240e:	80 5d       	subi	r24, 0xD0	; 208
    2410:	90 e0       	ldi	r25, 0x00	; 0
    2412:	0e 94 db 1e 	call	0x3db6	; 0x3db6 <fputc>
        divisor /= 10;
    2416:	c8 01       	movw	r24, r16
    2418:	b7 01       	movw	r22, r14
    241a:	2a e0       	ldi	r18, 0x0A	; 10
    241c:	30 e0       	ldi	r19, 0x00	; 0
    241e:	40 e0       	ldi	r20, 0x00	; 0
    2420:	50 e0       	ldi	r21, 0x00	; 0
    2422:	0e 94 be 1c 	call	0x397c	; 0x397c <__udivmodsi4>
    2426:	c9 01       	movw	r24, r18
    2428:	da 01       	movw	r26, r20
    242a:	7c 01       	movw	r14, r24
    242c:	8d 01       	movw	r16, r26
    }
    while (divisor > 0);
    242e:	e1 14       	cp	r14, r1
    2430:	f1 04       	cpc	r15, r1
    2432:	01 05       	cpc	r16, r1
    2434:	11 05       	cpc	r17, r1
    2436:	c1 f6       	brne	.-80     	; 0x23e8 <UnityPrintNumberUnsigned+0x60>
}
    2438:	df 91       	pop	r29
    243a:	cf 91       	pop	r28
    243c:	1f 91       	pop	r17
    243e:	0f 91       	pop	r16
    2440:	ff 90       	pop	r15
    2442:	ef 90       	pop	r14
    2444:	df 90       	pop	r13
    2446:	cf 90       	pop	r12
    2448:	bf 90       	pop	r11
    244a:	af 90       	pop	r10
    244c:	08 95       	ret

0000244e <UnityPrintNumber>:
}

//-----------------------------------------------
/// basically do an itoa using as little ram as possible
void UnityPrintNumber(const _U_SINT number_to_print)
{
    244e:	af 92       	push	r10
    2450:	bf 92       	push	r11
    2452:	cf 92       	push	r12
    2454:	df 92       	push	r13
    2456:	ef 92       	push	r14
    2458:	ff 92       	push	r15
    245a:	0f 93       	push	r16
    245c:	1f 93       	push	r17
    245e:	cf 93       	push	r28
    2460:	df 93       	push	r29
    2462:	7b 01       	movw	r14, r22
    2464:	8c 01       	movw	r16, r24
    _U_SINT divisor = 1;
    _U_SINT next_divisor;
    _U_SINT number = number_to_print;

    if (number < 0)
    2466:	97 ff       	sbrs	r25, 7
    2468:	22 c0       	rjmp	.+68     	; 0x24ae <UnityPrintNumber+0x60>
    {
        UNITY_OUTPUT_CHAR('-');
    246a:	60 91 81 03 	lds	r22, 0x0381
    246e:	70 91 82 03 	lds	r23, 0x0382
    2472:	8d e2       	ldi	r24, 0x2D	; 45
    2474:	90 e0       	ldi	r25, 0x00	; 0
    2476:	0e 94 db 1e 	call	0x3db6	; 0x3db6 <fputc>
        number = -number;
    247a:	aa 24       	eor	r10, r10
    247c:	bb 24       	eor	r11, r11
    247e:	65 01       	movw	r12, r10
    2480:	ae 18       	sub	r10, r14
    2482:	bf 08       	sbc	r11, r15
    2484:	c0 0a       	sbc	r12, r16
    2486:	d1 0a       	sbc	r13, r17
    2488:	14 c0       	rjmp	.+40     	; 0x24b2 <UnityPrintNumber+0x64>
    }

    // figure out initial divisor
    while (number / divisor > 9)
    {
        next_divisor = divisor * 10;
    248a:	c8 01       	movw	r24, r16
    248c:	b7 01       	movw	r22, r14
    248e:	2a e0       	ldi	r18, 0x0A	; 10
    2490:	30 e0       	ldi	r19, 0x00	; 0
    2492:	40 e0       	ldi	r20, 0x00	; 0
    2494:	50 e0       	ldi	r21, 0x00	; 0
    2496:	0e 94 8c 1c 	call	0x3918	; 0x3918 <__mulsi3>
    249a:	21 96       	adiw	r28, 0x01	; 1
        if (next_divisor > divisor)
    249c:	cb 30       	cpi	r28, 0x0B	; 11
    249e:	d1 05       	cpc	r29, r1
    24a0:	d1 f0       	breq	.+52     	; 0x24d6 <UnityPrintNumber+0x88>
            divisor = next_divisor;
        else
            break;
    24a2:	ac 01       	movw	r20, r24
    24a4:	cb 01       	movw	r24, r22
    24a6:	da 01       	movw	r26, r20
    24a8:	7c 01       	movw	r14, r24
    24aa:	8d 01       	movw	r16, r26
    24ac:	09 c0       	rjmp	.+18     	; 0x24c0 <UnityPrintNumber+0x72>
    24ae:	5b 01       	movw	r10, r22
    24b0:	6c 01       	movw	r12, r24
    24b2:	31 e0       	ldi	r19, 0x01	; 1
    24b4:	e3 2e       	mov	r14, r19
    24b6:	f1 2c       	mov	r15, r1
    24b8:	01 2d       	mov	r16, r1
    24ba:	11 2d       	mov	r17, r1
    24bc:	c0 e0       	ldi	r28, 0x00	; 0
    24be:	d0 e0       	ldi	r29, 0x00	; 0
        UNITY_OUTPUT_CHAR('-');
        number = -number;
    }

    // figure out initial divisor
    while (number / divisor > 9)
    24c0:	c6 01       	movw	r24, r12
    24c2:	b5 01       	movw	r22, r10
    24c4:	a8 01       	movw	r20, r16
    24c6:	97 01       	movw	r18, r14
    24c8:	0e 94 e0 1c 	call	0x39c0	; 0x39c0 <__divmodsi4>
    24cc:	2a 30       	cpi	r18, 0x0A	; 10
    24ce:	31 05       	cpc	r19, r1
    24d0:	41 05       	cpc	r20, r1
    24d2:	51 05       	cpc	r21, r1
    24d4:	d4 f6       	brge	.-76     	; 0x248a <UnityPrintNumber+0x3c>
    }

    // now mod and print, then divide divisor
    do
    {
        UNITY_OUTPUT_CHAR((char)('0' + (number / divisor % 10)));
    24d6:	c6 01       	movw	r24, r12
    24d8:	b5 01       	movw	r22, r10
    24da:	a8 01       	movw	r20, r16
    24dc:	97 01       	movw	r18, r14
    24de:	0e 94 e0 1c 	call	0x39c0	; 0x39c0 <__divmodsi4>
    24e2:	ca 01       	movw	r24, r20
    24e4:	b9 01       	movw	r22, r18
    24e6:	2a e0       	ldi	r18, 0x0A	; 10
    24e8:	30 e0       	ldi	r19, 0x00	; 0
    24ea:	40 e0       	ldi	r20, 0x00	; 0
    24ec:	50 e0       	ldi	r21, 0x00	; 0
    24ee:	0e 94 e0 1c 	call	0x39c0	; 0x39c0 <__divmodsi4>
    24f2:	86 2f       	mov	r24, r22
    24f4:	60 91 81 03 	lds	r22, 0x0381
    24f8:	70 91 82 03 	lds	r23, 0x0382
    24fc:	80 5d       	subi	r24, 0xD0	; 208
    24fe:	90 e0       	ldi	r25, 0x00	; 0
    2500:	0e 94 db 1e 	call	0x3db6	; 0x3db6 <fputc>
        divisor /= 10;
    2504:	c8 01       	movw	r24, r16
    2506:	b7 01       	movw	r22, r14
    2508:	2a e0       	ldi	r18, 0x0A	; 10
    250a:	30 e0       	ldi	r19, 0x00	; 0
    250c:	40 e0       	ldi	r20, 0x00	; 0
    250e:	50 e0       	ldi	r21, 0x00	; 0
    2510:	0e 94 e0 1c 	call	0x39c0	; 0x39c0 <__divmodsi4>
    2514:	c9 01       	movw	r24, r18
    2516:	da 01       	movw	r26, r20
    2518:	7c 01       	movw	r14, r24
    251a:	8d 01       	movw	r16, r26
    }
    while (divisor > 0);
    251c:	1e 14       	cp	r1, r14
    251e:	1f 04       	cpc	r1, r15
    2520:	10 06       	cpc	r1, r16
    2522:	11 06       	cpc	r1, r17
    2524:	c4 f2       	brlt	.-80     	; 0x24d6 <UnityPrintNumber+0x88>
}
    2526:	df 91       	pop	r29
    2528:	cf 91       	pop	r28
    252a:	1f 91       	pop	r17
    252c:	0f 91       	pop	r16
    252e:	ff 90       	pop	r15
    2530:	ef 90       	pop	r14
    2532:	df 90       	pop	r13
    2534:	cf 90       	pop	r12
    2536:	bf 90       	pop	r11
    2538:	af 90       	pop	r10
    253a:	08 95       	ret

0000253c <UnityPrintNumberByStyle>:
}

//-----------------------------------------------
void UnityPrintNumberByStyle(const _U_SINT number, const UNITY_DISPLAY_STYLE_T style)
{
    if ((style & UNITY_DISPLAY_RANGE_INT) == UNITY_DISPLAY_RANGE_INT)
    253c:	44 ff       	sbrs	r20, 4
    253e:	03 c0       	rjmp	.+6      	; 0x2546 <UnityPrintNumberByStyle+0xa>
    {
        UnityPrintNumber(number);
    2540:	0e 94 27 12 	call	0x244e	; 0x244e <UnityPrintNumber>
    2544:	08 95       	ret
    }
    else if ((style & UNITY_DISPLAY_RANGE_UINT) == UNITY_DISPLAY_RANGE_UINT)
    2546:	45 ff       	sbrs	r20, 5
    2548:	03 c0       	rjmp	.+6      	; 0x2550 <UnityPrintNumberByStyle+0x14>
    {
        UnityPrintNumberUnsigned((_U_UINT)number);
    254a:	0e 94 c4 11 	call	0x2388	; 0x2388 <UnityPrintNumberUnsigned>
    254e:	08 95       	ret
    }
    else
    {
        UnityPrintNumberHex((_U_UINT)number, (style & 0x000F) << 1);
    2550:	4f 70       	andi	r20, 0x0F	; 15
    2552:	44 0f       	add	r20, r20
    2554:	0e 94 7f 11 	call	0x22fe	; 0x22fe <UnityPrintNumberHex>
    2558:	08 95       	ret

0000255a <UnityPrint>:
//-----------------------------------------------
// Pretty Printers & Test Result Output Handlers
//-----------------------------------------------

void UnityPrint(const char* string)
{
    255a:	cf 93       	push	r28
    255c:	df 93       	push	r29
    const char* pch = string;

    if (pch != NULL)
    255e:	00 97       	sbiw	r24, 0x00	; 0
    2560:	09 f4       	brne	.+2      	; 0x2564 <UnityPrint+0xa>
    2562:	45 c0       	rjmp	.+138    	; 0x25ee <UnityPrint+0x94>
    2564:	ec 01       	movw	r28, r24
    2566:	3f c0       	rjmp	.+126    	; 0x25e6 <UnityPrint+0x8c>
    {
        while (*pch)
        {
            // printable characters plus CR & LF are printed
            if ((*pch <= 126) && (*pch >= 32))
    2568:	89 2f       	mov	r24, r25
    256a:	80 52       	subi	r24, 0x20	; 32
    256c:	8f 35       	cpi	r24, 0x5F	; 95
    256e:	38 f4       	brcc	.+14     	; 0x257e <UnityPrint+0x24>
            {
                UNITY_OUTPUT_CHAR(*pch);
    2570:	60 91 81 03 	lds	r22, 0x0381
    2574:	70 91 82 03 	lds	r23, 0x0382
    2578:	89 2f       	mov	r24, r25
    257a:	90 e0       	ldi	r25, 0x00	; 0
    257c:	10 c0       	rjmp	.+32     	; 0x259e <UnityPrint+0x44>
            }
            //write escaped carriage returns
            else if (*pch == 13)
    257e:	9d 30       	cpi	r25, 0x0D	; 13
    2580:	89 f4       	brne	.+34     	; 0x25a4 <UnityPrint+0x4a>
            {
                UNITY_OUTPUT_CHAR('\\');
    2582:	60 91 81 03 	lds	r22, 0x0381
    2586:	70 91 82 03 	lds	r23, 0x0382
    258a:	8c e5       	ldi	r24, 0x5C	; 92
    258c:	90 e0       	ldi	r25, 0x00	; 0
    258e:	0e 94 db 1e 	call	0x3db6	; 0x3db6 <fputc>
                UNITY_OUTPUT_CHAR('r');
    2592:	60 91 81 03 	lds	r22, 0x0381
    2596:	70 91 82 03 	lds	r23, 0x0382
    259a:	82 e7       	ldi	r24, 0x72	; 114
    259c:	90 e0       	ldi	r25, 0x00	; 0
    259e:	0e 94 db 1e 	call	0x3db6	; 0x3db6 <fputc>
    25a2:	20 c0       	rjmp	.+64     	; 0x25e4 <UnityPrint+0x8a>
            }
            //write escaped line feeds
            else if (*pch == 10)
    25a4:	9a 30       	cpi	r25, 0x0A	; 10
    25a6:	79 f4       	brne	.+30     	; 0x25c6 <UnityPrint+0x6c>
            {
                UNITY_OUTPUT_CHAR('\\');
    25a8:	60 91 81 03 	lds	r22, 0x0381
    25ac:	70 91 82 03 	lds	r23, 0x0382
    25b0:	8c e5       	ldi	r24, 0x5C	; 92
    25b2:	90 e0       	ldi	r25, 0x00	; 0
    25b4:	0e 94 db 1e 	call	0x3db6	; 0x3db6 <fputc>
                UNITY_OUTPUT_CHAR('n');
    25b8:	60 91 81 03 	lds	r22, 0x0381
    25bc:	70 91 82 03 	lds	r23, 0x0382
    25c0:	8e e6       	ldi	r24, 0x6E	; 110
    25c2:	90 e0       	ldi	r25, 0x00	; 0
    25c4:	ec cf       	rjmp	.-40     	; 0x259e <UnityPrint+0x44>
            }
            // unprintable characters are shown as codes
            else
            {
                UNITY_OUTPUT_CHAR('\\');
    25c6:	60 91 81 03 	lds	r22, 0x0381
    25ca:	70 91 82 03 	lds	r23, 0x0382
    25ce:	8c e5       	ldi	r24, 0x5C	; 92
    25d0:	90 e0       	ldi	r25, 0x00	; 0
    25d2:	0e 94 db 1e 	call	0x3db6	; 0x3db6 <fputc>
                UnityPrintNumberHex((_U_SINT)*pch, 2);
    25d6:	68 81       	ld	r22, Y
    25d8:	70 e0       	ldi	r23, 0x00	; 0
    25da:	80 e0       	ldi	r24, 0x00	; 0
    25dc:	90 e0       	ldi	r25, 0x00	; 0
    25de:	42 e0       	ldi	r20, 0x02	; 2
    25e0:	0e 94 7f 11 	call	0x22fe	; 0x22fe <UnityPrintNumberHex>
            }
            pch++;
    25e4:	21 96       	adiw	r28, 0x01	; 1
{
    const char* pch = string;

    if (pch != NULL)
    {
        while (*pch)
    25e6:	98 81       	ld	r25, Y
    25e8:	99 23       	and	r25, r25
    25ea:	09 f0       	breq	.+2      	; 0x25ee <UnityPrint+0x94>
    25ec:	bd cf       	rjmp	.-134    	; 0x2568 <UnityPrint+0xe>
                UnityPrintNumberHex((_U_SINT)*pch, 2);
            }
            pch++;
        }
    }
}
    25ee:	df 91       	pop	r29
    25f0:	cf 91       	pop	r28
    25f2:	08 95       	ret

000025f4 <UnityAddMsgIfSpecified>:
    Unity.CurrentTestIgnored = 0;
}

//-----------------------------------------------
void UnityAddMsgIfSpecified(const char* msg)
{
    25f4:	cf 93       	push	r28
    25f6:	df 93       	push	r29
    25f8:	ec 01       	movw	r28, r24
    if (msg)
    25fa:	00 97       	sbiw	r24, 0x00	; 0
    25fc:	49 f0       	breq	.+18     	; 0x2610 <UnityAddMsgIfSpecified+0x1c>
    {
        UnityPrint(UnityStrSpacer);
    25fe:	80 91 2d 01 	lds	r24, 0x012D
    2602:	90 91 2e 01 	lds	r25, 0x012E
    2606:	0e 94 ad 12 	call	0x255a	; 0x255a <UnityPrint>
        UnityPrint(msg);
    260a:	ce 01       	movw	r24, r28
    260c:	0e 94 ad 12 	call	0x255a	; 0x255a <UnityPrint>
    }
}
    2610:	df 91       	pop	r29
    2612:	cf 91       	pop	r28
    2614:	08 95       	ret

00002616 <UnityEnd>:
}

//-----------------------------------------------
int UnityEnd(void)
{
    UnityPrint("-----------------------");
    2616:	85 ed       	ldi	r24, 0xD5	; 213
    2618:	90 e0       	ldi	r25, 0x00	; 0
    261a:	0e 94 ad 12 	call	0x255a	; 0x255a <UnityPrint>
    UNITY_PRINT_EOL;
    261e:	60 91 81 03 	lds	r22, 0x0381
    2622:	70 91 82 03 	lds	r23, 0x0382
    2626:	8a e0       	ldi	r24, 0x0A	; 10
    2628:	90 e0       	ldi	r25, 0x00	; 0
    262a:	0e 94 db 1e 	call	0x3db6	; 0x3db6 <fputc>
    UnityPrintNumber(Unity.NumberOfTests);
    262e:	60 91 c1 02 	lds	r22, 0x02C1
    2632:	70 e0       	ldi	r23, 0x00	; 0
    2634:	80 e0       	ldi	r24, 0x00	; 0
    2636:	90 e0       	ldi	r25, 0x00	; 0
    2638:	0e 94 27 12 	call	0x244e	; 0x244e <UnityPrintNumber>
    UnityPrint(" Tests ");
    263c:	8d ee       	ldi	r24, 0xED	; 237
    263e:	90 e0       	ldi	r25, 0x00	; 0
    2640:	0e 94 ad 12 	call	0x255a	; 0x255a <UnityPrint>
    UnityPrintNumber(Unity.TestFailures);
    2644:	60 91 c2 02 	lds	r22, 0x02C2
    2648:	70 e0       	ldi	r23, 0x00	; 0
    264a:	80 e0       	ldi	r24, 0x00	; 0
    264c:	90 e0       	ldi	r25, 0x00	; 0
    264e:	0e 94 27 12 	call	0x244e	; 0x244e <UnityPrintNumber>
    UnityPrint(" Failures ");
    2652:	85 ef       	ldi	r24, 0xF5	; 245
    2654:	90 e0       	ldi	r25, 0x00	; 0
    2656:	0e 94 ad 12 	call	0x255a	; 0x255a <UnityPrint>
    UnityPrintNumber(Unity.TestIgnores);
    265a:	60 91 c3 02 	lds	r22, 0x02C3
    265e:	70 e0       	ldi	r23, 0x00	; 0
    2660:	80 e0       	ldi	r24, 0x00	; 0
    2662:	90 e0       	ldi	r25, 0x00	; 0
    2664:	0e 94 27 12 	call	0x244e	; 0x244e <UnityPrintNumber>
    UnityPrint(" Ignored");
    2668:	80 e0       	ldi	r24, 0x00	; 0
    266a:	91 e0       	ldi	r25, 0x01	; 1
    266c:	0e 94 ad 12 	call	0x255a	; 0x255a <UnityPrint>
    UNITY_PRINT_EOL;
    2670:	60 91 81 03 	lds	r22, 0x0381
    2674:	70 91 82 03 	lds	r23, 0x0382
    2678:	8a e0       	ldi	r24, 0x0A	; 10
    267a:	90 e0       	ldi	r25, 0x00	; 0
    267c:	0e 94 db 1e 	call	0x3db6	; 0x3db6 <fputc>
    if (Unity.TestFailures == 0U)
    2680:	80 91 c2 02 	lds	r24, 0x02C2
    2684:	88 23       	and	r24, r24
    2686:	19 f4       	brne	.+6      	; 0x268e <UnityEnd+0x78>
    {
        UnityPrint("OK");
    2688:	89 e0       	ldi	r24, 0x09	; 9
    268a:	91 e0       	ldi	r25, 0x01	; 1
    268c:	02 c0       	rjmp	.+4      	; 0x2692 <UnityEnd+0x7c>
    }
    else
    {
        UnityPrint("FAIL");
    268e:	8c e0       	ldi	r24, 0x0C	; 12
    2690:	91 e0       	ldi	r25, 0x01	; 1
    2692:	0e 94 ad 12 	call	0x255a	; 0x255a <UnityPrint>
    }
    UNITY_PRINT_EOL;
    2696:	60 91 81 03 	lds	r22, 0x0381
    269a:	70 91 82 03 	lds	r23, 0x0382
    269e:	8a e0       	ldi	r24, 0x0A	; 10
    26a0:	90 e0       	ldi	r25, 0x00	; 0
    26a2:	0e 94 db 1e 	call	0x3db6	; 0x3db6 <fputc>
    return Unity.TestFailures;
}
    26a6:	80 91 c2 02 	lds	r24, 0x02C2
    26aa:	90 e0       	ldi	r25, 0x00	; 0
    26ac:	08 95       	ret

000026ae <UnityPrintExpectedAndActualStrings>:
    }
}

//-----------------------------------------------
void UnityPrintExpectedAndActualStrings(const char* expected, const char* actual)
{
    26ae:	0f 93       	push	r16
    26b0:	1f 93       	push	r17
    26b2:	cf 93       	push	r28
    26b4:	df 93       	push	r29
    26b6:	ec 01       	movw	r28, r24
    26b8:	8b 01       	movw	r16, r22
    UnityPrint(UnityStrExpected);
    26ba:	80 91 3a 01 	lds	r24, 0x013A
    26be:	90 91 3b 01 	lds	r25, 0x013B
    26c2:	0e 94 ad 12 	call	0x255a	; 0x255a <UnityPrint>
    if (expected != NULL)
    26c6:	20 97       	sbiw	r28, 0x00	; 0
    26c8:	a1 f0       	breq	.+40     	; 0x26f2 <UnityPrintExpectedAndActualStrings+0x44>
    {
        UNITY_OUTPUT_CHAR('\'');
    26ca:	60 91 81 03 	lds	r22, 0x0381
    26ce:	70 91 82 03 	lds	r23, 0x0382
    26d2:	87 e2       	ldi	r24, 0x27	; 39
    26d4:	90 e0       	ldi	r25, 0x00	; 0
    26d6:	0e 94 db 1e 	call	0x3db6	; 0x3db6 <fputc>
        UnityPrint(expected);
    26da:	ce 01       	movw	r24, r28
    26dc:	0e 94 ad 12 	call	0x255a	; 0x255a <UnityPrint>
        UNITY_OUTPUT_CHAR('\'');
    26e0:	60 91 81 03 	lds	r22, 0x0381
    26e4:	70 91 82 03 	lds	r23, 0x0382
    26e8:	87 e2       	ldi	r24, 0x27	; 39
    26ea:	90 e0       	ldi	r25, 0x00	; 0
    26ec:	0e 94 db 1e 	call	0x3db6	; 0x3db6 <fputc>
    26f0:	06 c0       	rjmp	.+12     	; 0x26fe <UnityPrintExpectedAndActualStrings+0x50>
    }
    else
    {
      UnityPrint(UnityStrNull);          
    26f2:	80 91 28 01 	lds	r24, 0x0128
    26f6:	90 91 29 01 	lds	r25, 0x0129
    26fa:	0e 94 ad 12 	call	0x255a	; 0x255a <UnityPrint>
    }
    UnityPrint(UnityStrWas);
    26fe:	80 91 42 01 	lds	r24, 0x0142
    2702:	90 91 43 01 	lds	r25, 0x0143
    2706:	0e 94 ad 12 	call	0x255a	; 0x255a <UnityPrint>
    if (actual != NULL)
    270a:	01 15       	cp	r16, r1
    270c:	11 05       	cpc	r17, r1
    270e:	a1 f0       	breq	.+40     	; 0x2738 <UnityPrintExpectedAndActualStrings+0x8a>
    {
        UNITY_OUTPUT_CHAR('\'');
    2710:	60 91 81 03 	lds	r22, 0x0381
    2714:	70 91 82 03 	lds	r23, 0x0382
    2718:	87 e2       	ldi	r24, 0x27	; 39
    271a:	90 e0       	ldi	r25, 0x00	; 0
    271c:	0e 94 db 1e 	call	0x3db6	; 0x3db6 <fputc>
        UnityPrint(actual);
    2720:	c8 01       	movw	r24, r16
    2722:	0e 94 ad 12 	call	0x255a	; 0x255a <UnityPrint>
        UNITY_OUTPUT_CHAR('\'');
    2726:	60 91 81 03 	lds	r22, 0x0381
    272a:	70 91 82 03 	lds	r23, 0x0382
    272e:	87 e2       	ldi	r24, 0x27	; 39
    2730:	90 e0       	ldi	r25, 0x00	; 0
    2732:	0e 94 db 1e 	call	0x3db6	; 0x3db6 <fputc>
    2736:	06 c0       	rjmp	.+12     	; 0x2744 <UnityPrintExpectedAndActualStrings+0x96>
    }
    else
    {
      UnityPrint(UnityStrNull);          
    2738:	80 91 28 01 	lds	r24, 0x0128
    273c:	90 91 29 01 	lds	r25, 0x0129
    2740:	0e 94 ad 12 	call	0x255a	; 0x255a <UnityPrint>
    }
}
    2744:	df 91       	pop	r29
    2746:	cf 91       	pop	r28
    2748:	1f 91       	pop	r17
    274a:	0f 91       	pop	r16
    274c:	08 95       	ret

0000274e <UnityTestResultsBegin>:
}
#endif

//-----------------------------------------------
void UnityTestResultsBegin(const char* file, const UNITY_LINE_TYPE line)
{
    274e:	ef 92       	push	r14
    2750:	ff 92       	push	r15
    2752:	0f 93       	push	r16
    2754:	1f 93       	push	r17
    2756:	e6 2e       	mov	r14, r22
    UnityPrint(file);
    2758:	0e 94 ad 12 	call	0x255a	; 0x255a <UnityPrint>
    UNITY_OUTPUT_CHAR(':');
    275c:	60 91 81 03 	lds	r22, 0x0381
    2760:	70 91 82 03 	lds	r23, 0x0382
    2764:	8a e3       	ldi	r24, 0x3A	; 58
    2766:	90 e0       	ldi	r25, 0x00	; 0
    2768:	0e 94 db 1e 	call	0x3db6	; 0x3db6 <fputc>
    UnityPrintNumber(line);
    276c:	ff 24       	eor	r15, r15
    276e:	00 e0       	ldi	r16, 0x00	; 0
    2770:	10 e0       	ldi	r17, 0x00	; 0
    2772:	c8 01       	movw	r24, r16
    2774:	b7 01       	movw	r22, r14
    2776:	0e 94 27 12 	call	0x244e	; 0x244e <UnityPrintNumber>
    UNITY_OUTPUT_CHAR(':');
    277a:	60 91 81 03 	lds	r22, 0x0381
    277e:	70 91 82 03 	lds	r23, 0x0382
    2782:	8a e3       	ldi	r24, 0x3A	; 58
    2784:	90 e0       	ldi	r25, 0x00	; 0
    2786:	0e 94 db 1e 	call	0x3db6	; 0x3db6 <fputc>
    UnityPrint(Unity.CurrentTestName);
    278a:	80 91 bb 02 	lds	r24, 0x02BB
    278e:	90 91 bc 02 	lds	r25, 0x02BC
    2792:	0e 94 ad 12 	call	0x255a	; 0x255a <UnityPrint>
    UNITY_OUTPUT_CHAR(':');
    2796:	60 91 81 03 	lds	r22, 0x0381
    279a:	70 91 82 03 	lds	r23, 0x0382
    279e:	8a e3       	ldi	r24, 0x3A	; 58
    27a0:	90 e0       	ldi	r25, 0x00	; 0
    27a2:	0e 94 db 1e 	call	0x3db6	; 0x3db6 <fputc>
}
    27a6:	1f 91       	pop	r17
    27a8:	0f 91       	pop	r16
    27aa:	ff 90       	pop	r15
    27ac:	ef 90       	pop	r14
    27ae:	08 95       	ret

000027b0 <UnityTestResultsFailBegin>:

//-----------------------------------------------
void UnityTestResultsFailBegin(const UNITY_LINE_TYPE line)
{
    27b0:	68 2f       	mov	r22, r24
    UnityTestResultsBegin(Unity.TestFile, line);
    27b2:	80 91 b9 02 	lds	r24, 0x02B9
    27b6:	90 91 ba 02 	lds	r25, 0x02BA
    27ba:	0e 94 a7 13 	call	0x274e	; 0x274e <UnityTestResultsBegin>
    UnityPrint("FAIL:");
    27be:	81 e1       	ldi	r24, 0x11	; 17
    27c0:	91 e0       	ldi	r25, 0x01	; 1
    27c2:	0e 94 ad 12 	call	0x255a	; 0x255a <UnityPrint>
}
    27c6:	08 95       	ret

000027c8 <UnityConcludeTest>:

//-----------------------------------------------
void UnityConcludeTest(void)
{
    if (Unity.CurrentTestIgnored)
    27c8:	80 91 c5 02 	lds	r24, 0x02C5
    27cc:	88 23       	and	r24, r24
    27ce:	31 f0       	breq	.+12     	; 0x27dc <UnityConcludeTest+0x14>
    {
        Unity.TestIgnores++;
    27d0:	80 91 c3 02 	lds	r24, 0x02C3
    27d4:	8f 5f       	subi	r24, 0xFF	; 255
    27d6:	80 93 c3 02 	sts	0x02C3, r24
    27da:	1e c0       	rjmp	.+60     	; 0x2818 <UnityConcludeTest+0x50>
    }
    else if (!Unity.CurrentTestFailed)
    27dc:	80 91 c4 02 	lds	r24, 0x02C4
    27e0:	88 23       	and	r24, r24
    27e2:	a9 f4       	brne	.+42     	; 0x280e <UnityConcludeTest+0x46>
    {
        UnityTestResultsBegin(Unity.TestFile, Unity.CurrentTestLineNumber);
    27e4:	80 91 b9 02 	lds	r24, 0x02B9
    27e8:	90 91 ba 02 	lds	r25, 0x02BA
    27ec:	60 91 bd 02 	lds	r22, 0x02BD
    27f0:	0e 94 a7 13 	call	0x274e	; 0x274e <UnityTestResultsBegin>
        UnityPrint("PASS");
    27f4:	87 e1       	ldi	r24, 0x17	; 23
    27f6:	91 e0       	ldi	r25, 0x01	; 1
    27f8:	0e 94 ad 12 	call	0x255a	; 0x255a <UnityPrint>
        UNITY_PRINT_EOL;
    27fc:	60 91 81 03 	lds	r22, 0x0381
    2800:	70 91 82 03 	lds	r23, 0x0382
    2804:	8a e0       	ldi	r24, 0x0A	; 10
    2806:	90 e0       	ldi	r25, 0x00	; 0
    2808:	0e 94 db 1e 	call	0x3db6	; 0x3db6 <fputc>
    280c:	05 c0       	rjmp	.+10     	; 0x2818 <UnityConcludeTest+0x50>
    }
    else
    {
        Unity.TestFailures++;
    280e:	80 91 c2 02 	lds	r24, 0x02C2
    2812:	8f 5f       	subi	r24, 0xFF	; 255
    2814:	80 93 c2 02 	sts	0x02C2, r24
    }

    Unity.CurrentTestFailed = 0;
    2818:	10 92 c4 02 	sts	0x02C4, r1
    Unity.CurrentTestIgnored = 0;
    281c:	10 92 c5 02 	sts	0x02C5, r1
}
    2820:	08 95       	ret

00002822 <UnityDefaultTestRun>:
	setUpFunc = NULL;
	tearDownFunc = NULL;
}

void UnityDefaultTestRun(UnityTestFunction Func, const char* FuncName, const int FuncLineNum)
{
    2822:	df 93       	push	r29
    2824:	cf 93       	push	r28
    2826:	00 d0       	rcall	.+0      	; 0x2828 <UnityDefaultTestRun+0x6>
    2828:	cd b7       	in	r28, 0x3d	; 61
    282a:	de b7       	in	r29, 0x3e	; 62
    282c:	9a 83       	std	Y+2, r25	; 0x02
    282e:	89 83       	std	Y+1, r24	; 0x01
    Unity.CurrentTestName = FuncName;
    2830:	70 93 bc 02 	sts	0x02BC, r23
    2834:	60 93 bb 02 	sts	0x02BB, r22
    Unity.CurrentTestLineNumber = FuncLineNum;
    2838:	66 27       	eor	r22, r22
    283a:	57 fd       	sbrc	r21, 7
    283c:	60 95       	com	r22
    283e:	76 2f       	mov	r23, r22
    2840:	40 93 bd 02 	sts	0x02BD, r20
    2844:	50 93 be 02 	sts	0x02BE, r21
    2848:	60 93 bf 02 	sts	0x02BF, r22
    284c:	70 93 c0 02 	sts	0x02C0, r23
    Unity.NumberOfTests++; 
    2850:	80 91 c1 02 	lds	r24, 0x02C1
    2854:	8f 5f       	subi	r24, 0xFF	; 255
    2856:	80 93 c1 02 	sts	0x02C1, r24
    if (TEST_PROTECT())
    285a:	86 ec       	ldi	r24, 0xC6	; 198
    285c:	92 e0       	ldi	r25, 0x02	; 2
    285e:	0e 94 3e 1e 	call	0x3c7c	; 0x3c7c <setjmp>
    2862:	89 2b       	or	r24, r25
    2864:	59 f4       	brne	.+22     	; 0x287c <UnityDefaultTestRun+0x5a>
    {
	if(setUpFunc != NULL)
    2866:	e0 91 dd 02 	lds	r30, 0x02DD
    286a:	f0 91 de 02 	lds	r31, 0x02DE
    286e:	30 97       	sbiw	r30, 0x00	; 0
    2870:	09 f0       	breq	.+2      	; 0x2874 <UnityDefaultTestRun+0x52>
	{
		setUpFunc();
    2872:	09 95       	icall
	}
        Func();
    2874:	89 81       	ldd	r24, Y+1	; 0x01
    2876:	9a 81       	ldd	r25, Y+2	; 0x02
    2878:	fc 01       	movw	r30, r24
    287a:	09 95       	icall
    }
    if (TEST_PROTECT() && !(Unity.CurrentTestIgnored))
    287c:	86 ec       	ldi	r24, 0xC6	; 198
    287e:	92 e0       	ldi	r25, 0x02	; 2
    2880:	0e 94 3e 1e 	call	0x3c7c	; 0x3c7c <setjmp>
    2884:	89 2b       	or	r24, r25
    2886:	59 f4       	brne	.+22     	; 0x289e <UnityDefaultTestRun+0x7c>
    2888:	80 91 c5 02 	lds	r24, 0x02C5
    288c:	88 23       	and	r24, r24
    288e:	39 f4       	brne	.+14     	; 0x289e <UnityDefaultTestRun+0x7c>
    {
	if(tearDownFunc !=NULL) 
    2890:	e0 91 df 02 	lds	r30, 0x02DF
    2894:	f0 91 e0 02 	lds	r31, 0x02E0
    2898:	30 97       	sbiw	r30, 0x00	; 0
    289a:	09 f0       	breq	.+2      	; 0x289e <UnityDefaultTestRun+0x7c>
	{
		tearDownFunc();
    289c:	09 95       	icall
	}
    }
    UnityConcludeTest();
    289e:	0e 94 e4 13 	call	0x27c8	; 0x27c8 <UnityConcludeTest>
}
    28a2:	0f 90       	pop	r0
    28a4:	0f 90       	pop	r0
    28a6:	cf 91       	pop	r28
    28a8:	df 91       	pop	r29
    28aa:	08 95       	ret

000028ac <UnityIgnore>:
    UNITY_FAIL_AND_BAIL;
}

//-----------------------------------------------
void UnityIgnore(const char* msg, const UNITY_LINE_TYPE line)
{
    28ac:	cf 93       	push	r28
    28ae:	df 93       	push	r29
    28b0:	ec 01       	movw	r28, r24
    UNITY_SKIP_EXECUTION;
    28b2:	80 91 c4 02 	lds	r24, 0x02C4
    28b6:	88 23       	and	r24, r24
    28b8:	a1 f5       	brne	.+104    	; 0x2922 <UnityIgnore+0x76>
    28ba:	80 91 c5 02 	lds	r24, 0x02C5
    28be:	88 23       	and	r24, r24
    28c0:	81 f5       	brne	.+96     	; 0x2922 <UnityIgnore+0x76>

    UnityTestResultsBegin(Unity.TestFile, line);
    28c2:	80 91 b9 02 	lds	r24, 0x02B9
    28c6:	90 91 ba 02 	lds	r25, 0x02BA
    28ca:	0e 94 a7 13 	call	0x274e	; 0x274e <UnityTestResultsBegin>
    UnityPrint("IGNORE");
    28ce:	8c e1       	ldi	r24, 0x1C	; 28
    28d0:	91 e0       	ldi	r25, 0x01	; 1
    28d2:	0e 94 ad 12 	call	0x255a	; 0x255a <UnityPrint>
    if (msg != NULL)
    28d6:	20 97       	sbiw	r28, 0x00	; 0
    28d8:	99 f0       	breq	.+38     	; 0x2900 <UnityIgnore+0x54>
    {
      UNITY_OUTPUT_CHAR(':');
    28da:	60 91 81 03 	lds	r22, 0x0381
    28de:	70 91 82 03 	lds	r23, 0x0382
    28e2:	8a e3       	ldi	r24, 0x3A	; 58
    28e4:	90 e0       	ldi	r25, 0x00	; 0
    28e6:	0e 94 db 1e 	call	0x3db6	; 0x3db6 <fputc>
      UNITY_OUTPUT_CHAR(' ');
    28ea:	60 91 81 03 	lds	r22, 0x0381
    28ee:	70 91 82 03 	lds	r23, 0x0382
    28f2:	80 e2       	ldi	r24, 0x20	; 32
    28f4:	90 e0       	ldi	r25, 0x00	; 0
    28f6:	0e 94 db 1e 	call	0x3db6	; 0x3db6 <fputc>
      UnityPrint(msg);
    28fa:	ce 01       	movw	r24, r28
    28fc:	0e 94 ad 12 	call	0x255a	; 0x255a <UnityPrint>
    }
    UNITY_IGNORE_AND_BAIL;
    2900:	81 e0       	ldi	r24, 0x01	; 1
    2902:	80 93 c5 02 	sts	0x02C5, r24
    2906:	60 91 81 03 	lds	r22, 0x0381
    290a:	70 91 82 03 	lds	r23, 0x0382
    290e:	8a e0       	ldi	r24, 0x0A	; 10
    2910:	90 e0       	ldi	r25, 0x00	; 0
    2912:	0e 94 db 1e 	call	0x3db6	; 0x3db6 <fputc>
    2916:	86 ec       	ldi	r24, 0xC6	; 198
    2918:	92 e0       	ldi	r25, 0x02	; 2
    291a:	61 e0       	ldi	r22, 0x01	; 1
    291c:	70 e0       	ldi	r23, 0x00	; 0
    291e:	0e 94 5e 1e 	call	0x3cbc	; 0x3cbc <longjmp>
}
    2922:	df 91       	pop	r29
    2924:	cf 91       	pop	r28
    2926:	08 95       	ret

00002928 <UnityFail>:
//-----------------------------------------------
// Control Functions
//-----------------------------------------------

void UnityFail(const char* msg, const UNITY_LINE_TYPE line)
{
    2928:	cf 93       	push	r28
    292a:	df 93       	push	r29
    292c:	ec 01       	movw	r28, r24
    UNITY_SKIP_EXECUTION;
    292e:	80 91 c4 02 	lds	r24, 0x02C4
    2932:	88 23       	and	r24, r24
    2934:	b9 f5       	brne	.+110    	; 0x29a4 <UnityFail+0x7c>
    2936:	80 91 c5 02 	lds	r24, 0x02C5
    293a:	88 23       	and	r24, r24
    293c:	99 f5       	brne	.+102    	; 0x29a4 <UnityFail+0x7c>

    UnityTestResultsBegin(Unity.TestFile, line);
    293e:	80 91 b9 02 	lds	r24, 0x02B9
    2942:	90 91 ba 02 	lds	r25, 0x02BA
    2946:	0e 94 a7 13 	call	0x274e	; 0x274e <UnityTestResultsBegin>
    UnityPrint("FAIL");
    294a:	8c e0       	ldi	r24, 0x0C	; 12
    294c:	91 e0       	ldi	r25, 0x01	; 1
    294e:	0e 94 ad 12 	call	0x255a	; 0x255a <UnityPrint>
    if (msg != NULL)
    2952:	20 97       	sbiw	r28, 0x00	; 0
    2954:	b1 f0       	breq	.+44     	; 0x2982 <UnityFail+0x5a>
    {
      UNITY_OUTPUT_CHAR(':');
    2956:	60 91 81 03 	lds	r22, 0x0381
    295a:	70 91 82 03 	lds	r23, 0x0382
    295e:	8a e3       	ldi	r24, 0x3A	; 58
    2960:	90 e0       	ldi	r25, 0x00	; 0
    2962:	0e 94 db 1e 	call	0x3db6	; 0x3db6 <fputc>
      if (msg[0] != ' ')
    2966:	88 81       	ld	r24, Y
    2968:	80 32       	cpi	r24, 0x20	; 32
    296a:	41 f0       	breq	.+16     	; 0x297c <UnityFail+0x54>
      {
        UNITY_OUTPUT_CHAR(' ');  
    296c:	60 91 81 03 	lds	r22, 0x0381
    2970:	70 91 82 03 	lds	r23, 0x0382
    2974:	80 e2       	ldi	r24, 0x20	; 32
    2976:	90 e0       	ldi	r25, 0x00	; 0
    2978:	0e 94 db 1e 	call	0x3db6	; 0x3db6 <fputc>
      }
      UnityPrint(msg);
    297c:	ce 01       	movw	r24, r28
    297e:	0e 94 ad 12 	call	0x255a	; 0x255a <UnityPrint>
    }
    UNITY_FAIL_AND_BAIL;
    2982:	81 e0       	ldi	r24, 0x01	; 1
    2984:	80 93 c4 02 	sts	0x02C4, r24
    2988:	60 91 81 03 	lds	r22, 0x0381
    298c:	70 91 82 03 	lds	r23, 0x0382
    2990:	8a e0       	ldi	r24, 0x0A	; 10
    2992:	90 e0       	ldi	r25, 0x00	; 0
    2994:	0e 94 db 1e 	call	0x3db6	; 0x3db6 <fputc>
    2998:	86 ec       	ldi	r24, 0xC6	; 198
    299a:	92 e0       	ldi	r25, 0x02	; 2
    299c:	61 e0       	ldi	r22, 0x01	; 1
    299e:	70 e0       	ldi	r23, 0x00	; 0
    29a0:	0e 94 5e 1e 	call	0x3cbc	; 0x3cbc <longjmp>
}
    29a4:	df 91       	pop	r29
    29a6:	cf 91       	pop	r28
    29a8:	08 95       	ret

000029aa <UnityAssertEqualString>:
//-----------------------------------------------
void UnityAssertEqualString(const char* expected,
                            const char* actual,
                            const char* msg,
                            const UNITY_LINE_TYPE lineNumber)
{
    29aa:	ef 92       	push	r14
    29ac:	ff 92       	push	r15
    29ae:	0f 93       	push	r16
    29b0:	1f 93       	push	r17
    29b2:	cf 93       	push	r28
    29b4:	df 93       	push	r29
    29b6:	8c 01       	movw	r16, r24
    29b8:	eb 01       	movw	r28, r22
    29ba:	7a 01       	movw	r14, r20
    _UU32 i;

    UNITY_SKIP_EXECUTION;
    29bc:	80 91 c4 02 	lds	r24, 0x02C4
    29c0:	88 23       	and	r24, r24
    29c2:	e9 f5       	brne	.+122    	; 0x2a3e <UnityAssertEqualString+0x94>
    29c4:	80 91 c5 02 	lds	r24, 0x02C5
    29c8:	88 23       	and	r24, r24
    29ca:	c9 f5       	brne	.+114    	; 0x2a3e <UnityAssertEqualString+0x94>
  
    // if both pointers not null compare the strings
    if (expected && actual)
    29cc:	01 15       	cp	r16, r1
    29ce:	11 05       	cpc	r17, r1
    29d0:	89 f0       	breq	.+34     	; 0x29f4 <UnityAssertEqualString+0x4a>
    29d2:	61 15       	cp	r22, r1
    29d4:	71 05       	cpc	r23, r1
    29d6:	89 f0       	breq	.+34     	; 0x29fa <UnityAssertEqualString+0x50>
    29d8:	d8 01       	movw	r26, r16
    29da:	fb 01       	movw	r30, r22
    29dc:	04 c0       	rjmp	.+8      	; 0x29e6 <UnityAssertEqualString+0x3c>
    {
        for (i = 0; expected[i] || actual[i]; i++)
        {
            if (expected[i] != actual[i])
    29de:	81 91       	ld	r24, Z+
    29e0:	11 96       	adiw	r26, 0x01	; 1
    29e2:	98 17       	cp	r25, r24
    29e4:	51 f4       	brne	.+20     	; 0x29fa <UnityAssertEqualString+0x50>
    UNITY_SKIP_EXECUTION;
  
    // if both pointers not null compare the strings
    if (expected && actual)
    {
        for (i = 0; expected[i] || actual[i]; i++)
    29e6:	9c 91       	ld	r25, X
    29e8:	99 23       	and	r25, r25
    29ea:	c9 f7       	brne	.-14     	; 0x29de <UnityAssertEqualString+0x34>
    29ec:	80 81       	ld	r24, Z
    29ee:	88 23       	and	r24, r24
    29f0:	b1 f7       	brne	.-20     	; 0x29de <UnityAssertEqualString+0x34>
    29f2:	06 c0       	rjmp	.+12     	; 0x2a00 <UnityAssertEqualString+0x56>
            }
        }
    }
    else
    { // handle case of one pointers being null (if both null, test should pass)
        if (expected != actual)
    29f4:	61 15       	cp	r22, r1
    29f6:	71 05       	cpc	r23, r1
    29f8:	19 f0       	breq	.+6      	; 0x2a00 <UnityAssertEqualString+0x56>
        {
            Unity.CurrentTestFailed = 1;
    29fa:	81 e0       	ldi	r24, 0x01	; 1
    29fc:	80 93 c4 02 	sts	0x02C4, r24
        }
    }

    if (Unity.CurrentTestFailed)
    2a00:	80 91 c4 02 	lds	r24, 0x02C4
    2a04:	88 23       	and	r24, r24
    2a06:	d9 f0       	breq	.+54     	; 0x2a3e <UnityAssertEqualString+0x94>
    {
      UnityTestResultsFailBegin(lineNumber);
    2a08:	82 2f       	mov	r24, r18
    2a0a:	0e 94 d8 13 	call	0x27b0	; 0x27b0 <UnityTestResultsFailBegin>
      UnityPrintExpectedAndActualStrings(expected, actual);
    2a0e:	c8 01       	movw	r24, r16
    2a10:	be 01       	movw	r22, r28
    2a12:	0e 94 57 13 	call	0x26ae	; 0x26ae <UnityPrintExpectedAndActualStrings>
      UnityAddMsgIfSpecified(msg);
    2a16:	c7 01       	movw	r24, r14
    2a18:	0e 94 fa 12 	call	0x25f4	; 0x25f4 <UnityAddMsgIfSpecified>
      UNITY_FAIL_AND_BAIL;
    2a1c:	81 e0       	ldi	r24, 0x01	; 1
    2a1e:	80 93 c4 02 	sts	0x02C4, r24
    2a22:	60 91 81 03 	lds	r22, 0x0381
    2a26:	70 91 82 03 	lds	r23, 0x0382
    2a2a:	8a e0       	ldi	r24, 0x0A	; 10
    2a2c:	90 e0       	ldi	r25, 0x00	; 0
    2a2e:	0e 94 db 1e 	call	0x3db6	; 0x3db6 <fputc>
    2a32:	86 ec       	ldi	r24, 0xC6	; 198
    2a34:	92 e0       	ldi	r25, 0x02	; 2
    2a36:	61 e0       	ldi	r22, 0x01	; 1
    2a38:	70 e0       	ldi	r23, 0x00	; 0
    2a3a:	0e 94 5e 1e 	call	0x3cbc	; 0x3cbc <longjmp>
    }
}
    2a3e:	df 91       	pop	r29
    2a40:	cf 91       	pop	r28
    2a42:	1f 91       	pop	r17
    2a44:	0f 91       	pop	r16
    2a46:	ff 90       	pop	r15
    2a48:	ef 90       	pop	r14
    2a4a:	08 95       	ret

00002a4c <UnityAssertNumbersWithin>:
                               const _U_SINT expected,
                               const _U_SINT actual,
                               const char* msg,
                               const UNITY_LINE_TYPE lineNumber,
                               const UNITY_DISPLAY_STYLE_T style)
{
    2a4c:	4f 92       	push	r4
    2a4e:	5f 92       	push	r5
    2a50:	6f 92       	push	r6
    2a52:	7f 92       	push	r7
    2a54:	8f 92       	push	r8
    2a56:	af 92       	push	r10
    2a58:	cf 92       	push	r12
    2a5a:	df 92       	push	r13
    2a5c:	ef 92       	push	r14
    2a5e:	ff 92       	push	r15
    2a60:	0f 93       	push	r16
    2a62:	1f 93       	push	r17
    2a64:	df 93       	push	r29
    2a66:	cf 93       	push	r28
    2a68:	00 d0       	rcall	.+0      	; 0x2a6a <UnityAssertNumbersWithin+0x1e>
    2a6a:	00 d0       	rcall	.+0      	; 0x2a6c <UnityAssertNumbersWithin+0x20>
    2a6c:	cd b7       	in	r28, 0x3d	; 61
    2a6e:	de b7       	in	r29, 0x3e	; 62
    2a70:	69 83       	std	Y+1, r22	; 0x01
    2a72:	7a 83       	std	Y+2, r23	; 0x02
    2a74:	8b 83       	std	Y+3, r24	; 0x03
    2a76:	9c 83       	std	Y+4, r25	; 0x04
    2a78:	29 01       	movw	r4, r18
    2a7a:	3a 01       	movw	r6, r20
    UNITY_SKIP_EXECUTION;
    2a7c:	80 91 c4 02 	lds	r24, 0x02C4
    2a80:	88 23       	and	r24, r24
    2a82:	09 f0       	breq	.+2      	; 0x2a86 <UnityAssertNumbersWithin+0x3a>
    2a84:	87 c0       	rjmp	.+270    	; 0x2b94 <UnityAssertNumbersWithin+0x148>
    2a86:	80 91 c5 02 	lds	r24, 0x02C5
    2a8a:	88 23       	and	r24, r24
    2a8c:	09 f0       	breq	.+2      	; 0x2a90 <UnityAssertNumbersWithin+0x44>
    2a8e:	82 c0       	rjmp	.+260    	; 0x2b94 <UnityAssertNumbersWithin+0x148>
    
    if ((style & UNITY_DISPLAY_RANGE_INT) == UNITY_DISPLAY_RANGE_INT)
    2a90:	84 fe       	sbrs	r8, 4
    2a92:	20 c0       	rjmp	.+64     	; 0x2ad4 <UnityAssertNumbersWithin+0x88>
    {
        if (actual > expected)
    2a94:	2e 15       	cp	r18, r14
    2a96:	3f 05       	cpc	r19, r15
    2a98:	40 07       	cpc	r20, r16
    2a9a:	51 07       	cpc	r21, r17
    2a9c:	4c f4       	brge	.+18     	; 0x2ab0 <UnityAssertNumbersWithin+0x64>
          Unity.CurrentTestFailed = ((actual - expected) > delta);
    2a9e:	10 92 c4 02 	sts	0x02C4, r1
    2aa2:	d8 01       	movw	r26, r16
    2aa4:	c7 01       	movw	r24, r14
    2aa6:	82 1b       	sub	r24, r18
    2aa8:	93 0b       	sbc	r25, r19
    2aaa:	a4 0b       	sbc	r26, r20
    2aac:	b5 0b       	sbc	r27, r21
    2aae:	08 c0       	rjmp	.+16     	; 0x2ac0 <UnityAssertNumbersWithin+0x74>
        else
          Unity.CurrentTestFailed = ((expected - actual) > delta);
    2ab0:	10 92 c4 02 	sts	0x02C4, r1
    2ab4:	da 01       	movw	r26, r20
    2ab6:	c9 01       	movw	r24, r18
    2ab8:	8e 19       	sub	r24, r14
    2aba:	9f 09       	sbc	r25, r15
    2abc:	a0 0b       	sbc	r26, r16
    2abe:	b1 0b       	sbc	r27, r17
    2ac0:	29 81       	ldd	r18, Y+1	; 0x01
    2ac2:	3a 81       	ldd	r19, Y+2	; 0x02
    2ac4:	4b 81       	ldd	r20, Y+3	; 0x03
    2ac6:	5c 81       	ldd	r21, Y+4	; 0x04
    2ac8:	28 17       	cp	r18, r24
    2aca:	39 07       	cpc	r19, r25
    2acc:	4a 07       	cpc	r20, r26
    2ace:	5b 07       	cpc	r21, r27
    2ad0:	1c f5       	brge	.+70     	; 0x2b18 <UnityAssertNumbersWithin+0xcc>
    2ad2:	1f c0       	rjmp	.+62     	; 0x2b12 <UnityAssertNumbersWithin+0xc6>
    }
    else
    {
        if ((_U_UINT)actual > (_U_UINT)expected)
    2ad4:	2e 15       	cp	r18, r14
    2ad6:	3f 05       	cpc	r19, r15
    2ad8:	40 07       	cpc	r20, r16
    2ada:	51 07       	cpc	r21, r17
    2adc:	48 f4       	brcc	.+18     	; 0x2af0 <UnityAssertNumbersWithin+0xa4>
            Unity.CurrentTestFailed = ((_U_UINT)(actual - expected) > (_U_UINT)delta);
    2ade:	10 92 c4 02 	sts	0x02C4, r1
    2ae2:	d8 01       	movw	r26, r16
    2ae4:	c7 01       	movw	r24, r14
    2ae6:	82 1b       	sub	r24, r18
    2ae8:	93 0b       	sbc	r25, r19
    2aea:	a4 0b       	sbc	r26, r20
    2aec:	b5 0b       	sbc	r27, r21
    2aee:	08 c0       	rjmp	.+16     	; 0x2b00 <UnityAssertNumbersWithin+0xb4>
        else
            Unity.CurrentTestFailed = ((_U_UINT)(expected - actual) > (_U_UINT)delta);
    2af0:	10 92 c4 02 	sts	0x02C4, r1
    2af4:	da 01       	movw	r26, r20
    2af6:	c9 01       	movw	r24, r18
    2af8:	8e 19       	sub	r24, r14
    2afa:	9f 09       	sbc	r25, r15
    2afc:	a0 0b       	sbc	r26, r16
    2afe:	b1 0b       	sbc	r27, r17
    2b00:	29 81       	ldd	r18, Y+1	; 0x01
    2b02:	3a 81       	ldd	r19, Y+2	; 0x02
    2b04:	4b 81       	ldd	r20, Y+3	; 0x03
    2b06:	5c 81       	ldd	r21, Y+4	; 0x04
    2b08:	28 17       	cp	r18, r24
    2b0a:	39 07       	cpc	r19, r25
    2b0c:	4a 07       	cpc	r20, r26
    2b0e:	5b 07       	cpc	r21, r27
    2b10:	18 f4       	brcc	.+6      	; 0x2b18 <UnityAssertNumbersWithin+0xcc>
    2b12:	81 e0       	ldi	r24, 0x01	; 1
    2b14:	80 93 c4 02 	sts	0x02C4, r24
    }

    if (Unity.CurrentTestFailed)
    2b18:	80 91 c4 02 	lds	r24, 0x02C4
    2b1c:	88 23       	and	r24, r24
    2b1e:	d1 f1       	breq	.+116    	; 0x2b94 <UnityAssertNumbersWithin+0x148>
    {
        UnityTestResultsFailBegin(lineNumber);
    2b20:	8a 2d       	mov	r24, r10
    2b22:	0e 94 d8 13 	call	0x27b0	; 0x27b0 <UnityTestResultsFailBegin>
        UnityPrint(UnityStrDelta);
    2b26:	80 91 84 01 	lds	r24, 0x0184
    2b2a:	90 91 85 01 	lds	r25, 0x0185
    2b2e:	0e 94 ad 12 	call	0x255a	; 0x255a <UnityPrint>
        UnityPrintNumberByStyle(delta, style);
    2b32:	69 81       	ldd	r22, Y+1	; 0x01
    2b34:	7a 81       	ldd	r23, Y+2	; 0x02
    2b36:	8b 81       	ldd	r24, Y+3	; 0x03
    2b38:	9c 81       	ldd	r25, Y+4	; 0x04
    2b3a:	48 2d       	mov	r20, r8
    2b3c:	0e 94 9e 12 	call	0x253c	; 0x253c <UnityPrintNumberByStyle>
        UnityPrint(UnityStrExpected);
    2b40:	80 91 3a 01 	lds	r24, 0x013A
    2b44:	90 91 3b 01 	lds	r25, 0x013B
    2b48:	0e 94 ad 12 	call	0x255a	; 0x255a <UnityPrint>
        UnityPrintNumberByStyle(expected, style);
    2b4c:	c3 01       	movw	r24, r6
    2b4e:	b2 01       	movw	r22, r4
    2b50:	48 2d       	mov	r20, r8
    2b52:	0e 94 9e 12 	call	0x253c	; 0x253c <UnityPrintNumberByStyle>
        UnityPrint(UnityStrWas);
    2b56:	80 91 42 01 	lds	r24, 0x0142
    2b5a:	90 91 43 01 	lds	r25, 0x0143
    2b5e:	0e 94 ad 12 	call	0x255a	; 0x255a <UnityPrint>
        UnityPrintNumberByStyle(actual, style);
    2b62:	c8 01       	movw	r24, r16
    2b64:	b7 01       	movw	r22, r14
    2b66:	48 2d       	mov	r20, r8
    2b68:	0e 94 9e 12 	call	0x253c	; 0x253c <UnityPrintNumberByStyle>
        UnityAddMsgIfSpecified(msg);
    2b6c:	c6 01       	movw	r24, r12
    2b6e:	0e 94 fa 12 	call	0x25f4	; 0x25f4 <UnityAddMsgIfSpecified>
        UNITY_FAIL_AND_BAIL;
    2b72:	81 e0       	ldi	r24, 0x01	; 1
    2b74:	80 93 c4 02 	sts	0x02C4, r24
    2b78:	60 91 81 03 	lds	r22, 0x0381
    2b7c:	70 91 82 03 	lds	r23, 0x0382
    2b80:	8a e0       	ldi	r24, 0x0A	; 10
    2b82:	90 e0       	ldi	r25, 0x00	; 0
    2b84:	0e 94 db 1e 	call	0x3db6	; 0x3db6 <fputc>
    2b88:	86 ec       	ldi	r24, 0xC6	; 198
    2b8a:	92 e0       	ldi	r25, 0x02	; 2
    2b8c:	61 e0       	ldi	r22, 0x01	; 1
    2b8e:	70 e0       	ldi	r23, 0x00	; 0
    2b90:	0e 94 5e 1e 	call	0x3cbc	; 0x3cbc <longjmp>
    }
}
    2b94:	0f 90       	pop	r0
    2b96:	0f 90       	pop	r0
    2b98:	0f 90       	pop	r0
    2b9a:	0f 90       	pop	r0
    2b9c:	cf 91       	pop	r28
    2b9e:	df 91       	pop	r29
    2ba0:	1f 91       	pop	r17
    2ba2:	0f 91       	pop	r16
    2ba4:	ff 90       	pop	r15
    2ba6:	ef 90       	pop	r14
    2ba8:	df 90       	pop	r13
    2baa:	cf 90       	pop	r12
    2bac:	af 90       	pop	r10
    2bae:	8f 90       	pop	r8
    2bb0:	7f 90       	pop	r7
    2bb2:	6f 90       	pop	r6
    2bb4:	5f 90       	pop	r5
    2bb6:	4f 90       	pop	r4
    2bb8:	08 95       	ret

00002bba <UnityAssertFloatsWithin>:
void UnityAssertFloatsWithin(const _UF delta,
                             const _UF expected,
                             const _UF actual,
                             const char* msg,
                             const UNITY_LINE_TYPE lineNumber)
{
    2bba:	6f 92       	push	r6
    2bbc:	7f 92       	push	r7
    2bbe:	8f 92       	push	r8
    2bc0:	9f 92       	push	r9
    2bc2:	af 92       	push	r10
    2bc4:	cf 92       	push	r12
    2bc6:	df 92       	push	r13
    2bc8:	ef 92       	push	r14
    2bca:	ff 92       	push	r15
    2bcc:	0f 93       	push	r16
    2bce:	1f 93       	push	r17
    2bd0:	3b 01       	movw	r6, r22
    2bd2:	4c 01       	movw	r8, r24
    _UF diff = actual - expected;
    _UF pos_delta = delta;

    UNITY_SKIP_EXECUTION;
    2bd4:	80 91 c4 02 	lds	r24, 0x02C4
    2bd8:	88 23       	and	r24, r24
    2bda:	09 f0       	breq	.+2      	; 0x2bde <UnityAssertFloatsWithin+0x24>
    2bdc:	59 c0       	rjmp	.+178    	; 0x2c90 <UnityAssertFloatsWithin+0xd6>
    2bde:	80 91 c5 02 	lds	r24, 0x02C5
    2be2:	88 23       	and	r24, r24
    2be4:	09 f0       	breq	.+2      	; 0x2be8 <UnityAssertFloatsWithin+0x2e>
    2be6:	54 c0       	rjmp	.+168    	; 0x2c90 <UnityAssertFloatsWithin+0xd6>
                             const _UF expected,
                             const _UF actual,
                             const char* msg,
                             const UNITY_LINE_TYPE lineNumber)
{
    _UF diff = actual - expected;
    2be8:	c8 01       	movw	r24, r16
    2bea:	b7 01       	movw	r22, r14
    2bec:	0e 94 47 1b 	call	0x368e	; 0x368e <__subsf3>
    2bf0:	7b 01       	movw	r14, r22
    2bf2:	8c 01       	movw	r16, r24
    _UF pos_delta = delta;

    UNITY_SKIP_EXECUTION;
  
    if (diff < 0)
    2bf4:	20 e0       	ldi	r18, 0x00	; 0
    2bf6:	30 e0       	ldi	r19, 0x00	; 0
    2bf8:	40 e0       	ldi	r20, 0x00	; 0
    2bfa:	50 e0       	ldi	r21, 0x00	; 0
    2bfc:	0e 94 ac 1b 	call	0x3758	; 0x3758 <__cmpsf2>
    2c00:	88 23       	and	r24, r24
    2c02:	54 f4       	brge	.+20     	; 0x2c18 <UnityAssertFloatsWithin+0x5e>
    {
        diff = 0.0f - diff;
    2c04:	60 e0       	ldi	r22, 0x00	; 0
    2c06:	70 e0       	ldi	r23, 0x00	; 0
    2c08:	80 e0       	ldi	r24, 0x00	; 0
    2c0a:	90 e0       	ldi	r25, 0x00	; 0
    2c0c:	a8 01       	movw	r20, r16
    2c0e:	97 01       	movw	r18, r14
    2c10:	0e 94 47 1b 	call	0x368e	; 0x368e <__subsf3>
    2c14:	7b 01       	movw	r14, r22
    2c16:	8c 01       	movw	r16, r24
    }
    if (pos_delta < 0)
    2c18:	c4 01       	movw	r24, r8
    2c1a:	b3 01       	movw	r22, r6
    2c1c:	20 e0       	ldi	r18, 0x00	; 0
    2c1e:	30 e0       	ldi	r19, 0x00	; 0
    2c20:	40 e0       	ldi	r20, 0x00	; 0
    2c22:	50 e0       	ldi	r21, 0x00	; 0
    2c24:	0e 94 ac 1b 	call	0x3758	; 0x3758 <__cmpsf2>
    2c28:	87 fd       	sbrc	r24, 7
    2c2a:	03 c0       	rjmp	.+6      	; 0x2c32 <UnityAssertFloatsWithin+0x78>
    2c2c:	a4 01       	movw	r20, r8
    2c2e:	93 01       	movw	r18, r6
    2c30:	0a c0       	rjmp	.+20     	; 0x2c46 <UnityAssertFloatsWithin+0x8c>
    {
        pos_delta = 0.0f - pos_delta;
    2c32:	60 e0       	ldi	r22, 0x00	; 0
    2c34:	70 e0       	ldi	r23, 0x00	; 0
    2c36:	80 e0       	ldi	r24, 0x00	; 0
    2c38:	90 e0       	ldi	r25, 0x00	; 0
    2c3a:	a4 01       	movw	r20, r8
    2c3c:	93 01       	movw	r18, r6
    2c3e:	0e 94 47 1b 	call	0x368e	; 0x368e <__subsf3>
    2c42:	9b 01       	movw	r18, r22
    2c44:	ac 01       	movw	r20, r24
    }

    if (pos_delta < diff)
    2c46:	ca 01       	movw	r24, r20
    2c48:	b9 01       	movw	r22, r18
    2c4a:	a8 01       	movw	r20, r16
    2c4c:	97 01       	movw	r18, r14
    2c4e:	0e 94 ac 1b 	call	0x3758	; 0x3758 <__cmpsf2>
    2c52:	88 23       	and	r24, r24
    2c54:	ec f4       	brge	.+58     	; 0x2c90 <UnityAssertFloatsWithin+0xd6>
    {
        UnityTestResultsFailBegin(lineNumber);
    2c56:	8a 2d       	mov	r24, r10
    2c58:	0e 94 d8 13 	call	0x27b0	; 0x27b0 <UnityTestResultsFailBegin>
        UnityPrint(UnityStrExpected);
        UnityPrintFloat(expected);
        UnityPrint(UnityStrWas);
        UnityPrintFloat(actual);
#else
        UnityPrint(UnityStrDelta);
    2c5c:	80 91 84 01 	lds	r24, 0x0184
    2c60:	90 91 85 01 	lds	r25, 0x0185
    2c64:	0e 94 ad 12 	call	0x255a	; 0x255a <UnityPrint>
#endif
        UnityAddMsgIfSpecified(msg);
    2c68:	c6 01       	movw	r24, r12
    2c6a:	0e 94 fa 12 	call	0x25f4	; 0x25f4 <UnityAddMsgIfSpecified>
        UNITY_FAIL_AND_BAIL;
    2c6e:	81 e0       	ldi	r24, 0x01	; 1
    2c70:	80 93 c4 02 	sts	0x02C4, r24
    2c74:	60 91 81 03 	lds	r22, 0x0381
    2c78:	70 91 82 03 	lds	r23, 0x0382
    2c7c:	8a e0       	ldi	r24, 0x0A	; 10
    2c7e:	90 e0       	ldi	r25, 0x00	; 0
    2c80:	0e 94 db 1e 	call	0x3db6	; 0x3db6 <fputc>
    2c84:	86 ec       	ldi	r24, 0xC6	; 198
    2c86:	92 e0       	ldi	r25, 0x02	; 2
    2c88:	61 e0       	ldi	r22, 0x01	; 1
    2c8a:	70 e0       	ldi	r23, 0x00	; 0
    2c8c:	0e 94 5e 1e 	call	0x3cbc	; 0x3cbc <longjmp>
    }
}
    2c90:	1f 91       	pop	r17
    2c92:	0f 91       	pop	r16
    2c94:	ff 90       	pop	r15
    2c96:	ef 90       	pop	r14
    2c98:	df 90       	pop	r13
    2c9a:	cf 90       	pop	r12
    2c9c:	af 90       	pop	r10
    2c9e:	9f 90       	pop	r9
    2ca0:	8f 90       	pop	r8
    2ca2:	7f 90       	pop	r7
    2ca4:	6f 90       	pop	r6
    2ca6:	08 95       	ret

00002ca8 <UnityAssertEqualNumber>:
void UnityAssertEqualNumber(const _U_SINT expected,
                            const _U_SINT actual,
                            const char* msg,
                            const UNITY_LINE_TYPE lineNumber,
                            const UNITY_DISPLAY_STYLE_T style)
{
    2ca8:	4f 92       	push	r4
    2caa:	5f 92       	push	r5
    2cac:	6f 92       	push	r6
    2cae:	7f 92       	push	r7
    2cb0:	8f 92       	push	r8
    2cb2:	9f 92       	push	r9
    2cb4:	af 92       	push	r10
    2cb6:	bf 92       	push	r11
    2cb8:	cf 92       	push	r12
    2cba:	ef 92       	push	r14
    2cbc:	0f 93       	push	r16
    2cbe:	1f 93       	push	r17
    2cc0:	4b 01       	movw	r8, r22
    2cc2:	5c 01       	movw	r10, r24
    2cc4:	29 01       	movw	r4, r18
    2cc6:	3a 01       	movw	r6, r20
    UNITY_SKIP_EXECUTION;
    2cc8:	80 91 c4 02 	lds	r24, 0x02C4
    2ccc:	88 23       	and	r24, r24
    2cce:	b1 f5       	brne	.+108    	; 0x2d3c <UnityAssertEqualNumber+0x94>
    2cd0:	80 91 c5 02 	lds	r24, 0x02C5
    2cd4:	88 23       	and	r24, r24
    2cd6:	91 f5       	brne	.+100    	; 0x2d3c <UnityAssertEqualNumber+0x94>

    if (expected != actual)
    2cd8:	82 16       	cp	r8, r18
    2cda:	93 06       	cpc	r9, r19
    2cdc:	a4 06       	cpc	r10, r20
    2cde:	b5 06       	cpc	r11, r21
    2ce0:	69 f1       	breq	.+90     	; 0x2d3c <UnityAssertEqualNumber+0x94>
    {
        UnityTestResultsFailBegin(lineNumber);
    2ce2:	8e 2d       	mov	r24, r14
    2ce4:	0e 94 d8 13 	call	0x27b0	; 0x27b0 <UnityTestResultsFailBegin>
        UnityPrint(UnityStrExpected);
    2ce8:	80 91 3a 01 	lds	r24, 0x013A
    2cec:	90 91 3b 01 	lds	r25, 0x013B
    2cf0:	0e 94 ad 12 	call	0x255a	; 0x255a <UnityPrint>
        UnityPrintNumberByStyle(expected, style);
    2cf4:	c5 01       	movw	r24, r10
    2cf6:	b4 01       	movw	r22, r8
    2cf8:	4c 2d       	mov	r20, r12
    2cfa:	0e 94 9e 12 	call	0x253c	; 0x253c <UnityPrintNumberByStyle>
        UnityPrint(UnityStrWas);
    2cfe:	80 91 42 01 	lds	r24, 0x0142
    2d02:	90 91 43 01 	lds	r25, 0x0143
    2d06:	0e 94 ad 12 	call	0x255a	; 0x255a <UnityPrint>
        UnityPrintNumberByStyle(actual, style);
    2d0a:	c3 01       	movw	r24, r6
    2d0c:	b2 01       	movw	r22, r4
    2d0e:	4c 2d       	mov	r20, r12
    2d10:	0e 94 9e 12 	call	0x253c	; 0x253c <UnityPrintNumberByStyle>
        UnityAddMsgIfSpecified(msg);
    2d14:	c8 01       	movw	r24, r16
    2d16:	0e 94 fa 12 	call	0x25f4	; 0x25f4 <UnityAddMsgIfSpecified>
        UNITY_FAIL_AND_BAIL;
    2d1a:	81 e0       	ldi	r24, 0x01	; 1
    2d1c:	80 93 c4 02 	sts	0x02C4, r24
    2d20:	60 91 81 03 	lds	r22, 0x0381
    2d24:	70 91 82 03 	lds	r23, 0x0382
    2d28:	8a e0       	ldi	r24, 0x0A	; 10
    2d2a:	90 e0       	ldi	r25, 0x00	; 0
    2d2c:	0e 94 db 1e 	call	0x3db6	; 0x3db6 <fputc>
    2d30:	86 ec       	ldi	r24, 0xC6	; 198
    2d32:	92 e0       	ldi	r25, 0x02	; 2
    2d34:	61 e0       	ldi	r22, 0x01	; 1
    2d36:	70 e0       	ldi	r23, 0x00	; 0
    2d38:	0e 94 5e 1e 	call	0x3cbc	; 0x3cbc <longjmp>
    }
}
    2d3c:	1f 91       	pop	r17
    2d3e:	0f 91       	pop	r16
    2d40:	ef 90       	pop	r14
    2d42:	cf 90       	pop	r12
    2d44:	bf 90       	pop	r11
    2d46:	af 90       	pop	r10
    2d48:	9f 90       	pop	r9
    2d4a:	8f 90       	pop	r8
    2d4c:	7f 90       	pop	r7
    2d4e:	6f 90       	pop	r6
    2d50:	5f 90       	pop	r5
    2d52:	4f 90       	pop	r4
    2d54:	08 95       	ret

00002d56 <UnityAssertBits>:
void UnityAssertBits(const _U_SINT mask,
                     const _U_SINT expected,
                     const _U_SINT actual,
                     const char* msg,
                     const UNITY_LINE_TYPE lineNumber)
{
    2d56:	2f 92       	push	r2
    2d58:	3f 92       	push	r3
    2d5a:	4f 92       	push	r4
    2d5c:	5f 92       	push	r5
    2d5e:	6f 92       	push	r6
    2d60:	7f 92       	push	r7
    2d62:	8f 92       	push	r8
    2d64:	9f 92       	push	r9
    2d66:	af 92       	push	r10
    2d68:	cf 92       	push	r12
    2d6a:	df 92       	push	r13
    2d6c:	ef 92       	push	r14
    2d6e:	ff 92       	push	r15
    2d70:	0f 93       	push	r16
    2d72:	1f 93       	push	r17
    2d74:	3b 01       	movw	r6, r22
    2d76:	4c 01       	movw	r8, r24
    2d78:	19 01       	movw	r2, r18
    2d7a:	2a 01       	movw	r4, r20
    UNITY_SKIP_EXECUTION;
    2d7c:	80 91 c4 02 	lds	r24, 0x02C4
    2d80:	88 23       	and	r24, r24
    2d82:	09 f0       	breq	.+2      	; 0x2d86 <UnityAssertBits+0x30>
    2d84:	41 c0       	rjmp	.+130    	; 0x2e08 <UnityAssertBits+0xb2>
    2d86:	80 91 c5 02 	lds	r24, 0x02C5
    2d8a:	88 23       	and	r24, r24
    2d8c:	e9 f5       	brne	.+122    	; 0x2e08 <UnityAssertBits+0xb2>
  
    if ((mask & expected) != (mask & actual))
    2d8e:	d8 01       	movw	r26, r16
    2d90:	c7 01       	movw	r24, r14
    2d92:	82 27       	eor	r24, r18
    2d94:	93 27       	eor	r25, r19
    2d96:	a4 27       	eor	r26, r20
    2d98:	b5 27       	eor	r27, r21
    2d9a:	86 21       	and	r24, r6
    2d9c:	97 21       	and	r25, r7
    2d9e:	a8 21       	and	r26, r8
    2da0:	b9 21       	and	r27, r9
    2da2:	00 97       	sbiw	r24, 0x00	; 0
    2da4:	a1 05       	cpc	r26, r1
    2da6:	b1 05       	cpc	r27, r1
    2da8:	79 f1       	breq	.+94     	; 0x2e08 <UnityAssertBits+0xb2>
    {
        UnityTestResultsFailBegin(lineNumber);
    2daa:	8a 2d       	mov	r24, r10
    2dac:	0e 94 d8 13 	call	0x27b0	; 0x27b0 <UnityTestResultsFailBegin>
        UnityPrint(UnityStrExpected);
    2db0:	80 91 3a 01 	lds	r24, 0x013A
    2db4:	90 91 3b 01 	lds	r25, 0x013B
    2db8:	0e 94 ad 12 	call	0x255a	; 0x255a <UnityPrint>
        UnityPrintMask(mask, expected);
    2dbc:	b3 01       	movw	r22, r6
    2dbe:	c4 01       	movw	r24, r8
    2dc0:	a2 01       	movw	r20, r4
    2dc2:	91 01       	movw	r18, r2
    2dc4:	0e 94 24 11 	call	0x2248	; 0x2248 <UnityPrintMask>
        UnityPrint(UnityStrWas);
    2dc8:	80 91 42 01 	lds	r24, 0x0142
    2dcc:	90 91 43 01 	lds	r25, 0x0143
    2dd0:	0e 94 ad 12 	call	0x255a	; 0x255a <UnityPrint>
        UnityPrintMask(mask, actual);
    2dd4:	b3 01       	movw	r22, r6
    2dd6:	c4 01       	movw	r24, r8
    2dd8:	a8 01       	movw	r20, r16
    2dda:	97 01       	movw	r18, r14
    2ddc:	0e 94 24 11 	call	0x2248	; 0x2248 <UnityPrintMask>
        UnityAddMsgIfSpecified(msg);
    2de0:	c6 01       	movw	r24, r12
    2de2:	0e 94 fa 12 	call	0x25f4	; 0x25f4 <UnityAddMsgIfSpecified>
        UNITY_FAIL_AND_BAIL;
    2de6:	81 e0       	ldi	r24, 0x01	; 1
    2de8:	80 93 c4 02 	sts	0x02C4, r24
    2dec:	60 91 81 03 	lds	r22, 0x0381
    2df0:	70 91 82 03 	lds	r23, 0x0382
    2df4:	8a e0       	ldi	r24, 0x0A	; 10
    2df6:	90 e0       	ldi	r25, 0x00	; 0
    2df8:	0e 94 db 1e 	call	0x3db6	; 0x3db6 <fputc>
    2dfc:	86 ec       	ldi	r24, 0xC6	; 198
    2dfe:	92 e0       	ldi	r25, 0x02	; 2
    2e00:	61 e0       	ldi	r22, 0x01	; 1
    2e02:	70 e0       	ldi	r23, 0x00	; 0
    2e04:	0e 94 5e 1e 	call	0x3cbc	; 0x3cbc <longjmp>
    }
}
    2e08:	1f 91       	pop	r17
    2e0a:	0f 91       	pop	r16
    2e0c:	ff 90       	pop	r15
    2e0e:	ef 90       	pop	r14
    2e10:	df 90       	pop	r13
    2e12:	cf 90       	pop	r12
    2e14:	af 90       	pop	r10
    2e16:	9f 90       	pop	r9
    2e18:	8f 90       	pop	r8
    2e1a:	7f 90       	pop	r7
    2e1c:	6f 90       	pop	r6
    2e1e:	5f 90       	pop	r5
    2e20:	4f 90       	pop	r4
    2e22:	3f 90       	pop	r3
    2e24:	2f 90       	pop	r2
    2e26:	08 95       	ret

00002e28 <UnityCheckArraysForNull>:
//-----------------------------------------------
// Assertion & Control Helpers
//-----------------------------------------------

int UnityCheckArraysForNull(const void* expected, const void* actual, const UNITY_LINE_TYPE lineNumber, const char* msg)
{
    2e28:	cf 93       	push	r28
    2e2a:	df 93       	push	r29
    2e2c:	e9 01       	movw	r28, r18
    //return true if they are both NULL
    if ((expected == NULL) && (actual == NULL))
    2e2e:	89 2b       	or	r24, r25
    2e30:	51 f4       	brne	.+20     	; 0x2e46 <UnityCheckArraysForNull+0x1e>
    2e32:	67 2b       	or	r22, r23
    2e34:	51 f1       	breq	.+84     	; 0x2e8a <UnityCheckArraysForNull+0x62>
        return 1;
        
    //throw error if just expected is NULL
    if (expected == NULL)
    {
        UnityTestResultsFailBegin(lineNumber);
    2e36:	84 2f       	mov	r24, r20
    2e38:	0e 94 d8 13 	call	0x27b0	; 0x27b0 <UnityTestResultsFailBegin>
        UnityPrint(UnityStrNullPointerForExpected);
    2e3c:	80 91 dc 01 	lds	r24, 0x01DC
    2e40:	90 91 dd 01 	lds	r25, 0x01DD
    2e44:	0c c0       	rjmp	.+24     	; 0x2e5e <UnityCheckArraysForNull+0x36>
        UnityAddMsgIfSpecified(msg);
        UNITY_FAIL_AND_BAIL;
    }

    //throw error if just actual is NULL
    if (actual == NULL)
    2e46:	67 2b       	or	r22, r23
    2e48:	19 f0       	breq	.+6      	; 0x2e50 <UnityCheckArraysForNull+0x28>
    2e4a:	20 e0       	ldi	r18, 0x00	; 0
    2e4c:	30 e0       	ldi	r19, 0x00	; 0
    2e4e:	1f c0       	rjmp	.+62     	; 0x2e8e <UnityCheckArraysForNull+0x66>
    {
        UnityTestResultsFailBegin(lineNumber);
    2e50:	84 2f       	mov	r24, r20
    2e52:	0e 94 d8 13 	call	0x27b0	; 0x27b0 <UnityTestResultsFailBegin>
        UnityPrint(UnityStrNullPointerForActual);
    2e56:	80 91 f7 01 	lds	r24, 0x01F7
    2e5a:	90 91 f8 01 	lds	r25, 0x01F8
    2e5e:	0e 94 ad 12 	call	0x255a	; 0x255a <UnityPrint>
        UnityAddMsgIfSpecified(msg);
    2e62:	ce 01       	movw	r24, r28
    2e64:	0e 94 fa 12 	call	0x25f4	; 0x25f4 <UnityAddMsgIfSpecified>
        UNITY_FAIL_AND_BAIL;
    2e68:	81 e0       	ldi	r24, 0x01	; 1
    2e6a:	80 93 c4 02 	sts	0x02C4, r24
    2e6e:	60 91 81 03 	lds	r22, 0x0381
    2e72:	70 91 82 03 	lds	r23, 0x0382
    2e76:	8a e0       	ldi	r24, 0x0A	; 10
    2e78:	90 e0       	ldi	r25, 0x00	; 0
    2e7a:	0e 94 db 1e 	call	0x3db6	; 0x3db6 <fputc>
    2e7e:	86 ec       	ldi	r24, 0xC6	; 198
    2e80:	92 e0       	ldi	r25, 0x02	; 2
    2e82:	61 e0       	ldi	r22, 0x01	; 1
    2e84:	70 e0       	ldi	r23, 0x00	; 0
    2e86:	0e 94 5e 1e 	call	0x3cbc	; 0x3cbc <longjmp>
    2e8a:	21 e0       	ldi	r18, 0x01	; 1
    2e8c:	30 e0       	ldi	r19, 0x00	; 0
    }
    
    //return false if neither is NULL
    return 0;
}
    2e8e:	c9 01       	movw	r24, r18
    2e90:	df 91       	pop	r29
    2e92:	cf 91       	pop	r28
    2e94:	08 95       	ret

00002e96 <UnityAssertEqualStringArray>:
void UnityAssertEqualStringArray( const char** expected,
                                  const char** actual,
                                  const _UU32 num_elements,
                                  const char* msg,
                                  const UNITY_LINE_TYPE lineNumber)
{
    2e96:	2f 92       	push	r2
    2e98:	3f 92       	push	r3
    2e9a:	4f 92       	push	r4
    2e9c:	5f 92       	push	r5
    2e9e:	6f 92       	push	r6
    2ea0:	7f 92       	push	r7
    2ea2:	8f 92       	push	r8
    2ea4:	9f 92       	push	r9
    2ea6:	af 92       	push	r10
    2ea8:	bf 92       	push	r11
    2eaa:	cf 92       	push	r12
    2eac:	df 92       	push	r13
    2eae:	ef 92       	push	r14
    2eb0:	ff 92       	push	r15
    2eb2:	0f 93       	push	r16
    2eb4:	1f 93       	push	r17
    2eb6:	df 93       	push	r29
    2eb8:	cf 93       	push	r28
    2eba:	0f 92       	push	r0
    2ebc:	cd b7       	in	r28, 0x3d	; 61
    2ebe:	de b7       	in	r29, 0x3e	; 62
    2ec0:	f8 2e       	mov	r15, r24
    2ec2:	99 2e       	mov	r9, r25
    2ec4:	2b 01       	movw	r4, r22
    2ec6:	59 01       	movw	r10, r18
    2ec8:	6a 01       	movw	r12, r20
    2eca:	18 01       	movw	r2, r16
    2ecc:	e9 82       	std	Y+1, r14	; 0x01
    _UU32 i, j = 0;
    
    UNITY_SKIP_EXECUTION;
    2ece:	80 91 c4 02 	lds	r24, 0x02C4
    2ed2:	88 23       	and	r24, r24
    2ed4:	09 f0       	breq	.+2      	; 0x2ed8 <UnityAssertEqualStringArray+0x42>
    2ed6:	99 c0       	rjmp	.+306    	; 0x300a <UnityAssertEqualStringArray+0x174>
    2ed8:	80 91 c5 02 	lds	r24, 0x02C5
    2edc:	88 23       	and	r24, r24
    2ede:	09 f0       	breq	.+2      	; 0x2ee2 <UnityAssertEqualStringArray+0x4c>
    2ee0:	94 c0       	rjmp	.+296    	; 0x300a <UnityAssertEqualStringArray+0x174>
  
    // if no elements, it's an error
    if (num_elements == 0)
    2ee2:	21 15       	cp	r18, r1
    2ee4:	31 05       	cpc	r19, r1
    2ee6:	41 05       	cpc	r20, r1
    2ee8:	51 05       	cpc	r21, r1
    2eea:	51 f4       	brne	.+20     	; 0x2f00 <UnityAssertEqualStringArray+0x6a>
    {
        UnityTestResultsFailBegin(lineNumber);
    2eec:	8e 2d       	mov	r24, r14
    2eee:	0e 94 d8 13 	call	0x27b0	; 0x27b0 <UnityTestResultsFailBegin>
        UnityPrint(UnityStrPointless);
    2ef2:	80 91 bd 01 	lds	r24, 0x01BD
    2ef6:	90 91 be 01 	lds	r25, 0x01BE
    2efa:	0e 94 ad 12 	call	0x255a	; 0x255a <UnityPrint>
    2efe:	60 c0       	rjmp	.+192    	; 0x2fc0 <UnityAssertEqualStringArray+0x12a>
        UnityAddMsgIfSpecified(msg);
        UNITY_FAIL_AND_BAIL;
    }

    if (UnityCheckArraysForNull((void*)expected, (void*)actual, lineNumber, msg) == 1)
    2f00:	8f 2d       	mov	r24, r15
    2f02:	49 81       	ldd	r20, Y+1	; 0x01
    2f04:	98 01       	movw	r18, r16
    2f06:	0e 94 14 17 	call	0x2e28	; 0x2e28 <UnityCheckArraysForNull>
    2f0a:	01 97       	sbiw	r24, 0x01	; 1
    2f0c:	09 f4       	brne	.+2      	; 0x2f10 <UnityAssertEqualStringArray+0x7a>
    2f0e:	7d c0       	rjmp	.+250    	; 0x300a <UnityAssertEqualStringArray+0x174>
        return;
    2f10:	8f 2d       	mov	r24, r15
    2f12:	99 2d       	mov	r25, r9
    2f14:	9c 01       	movw	r18, r24
    2f16:	49 01       	movw	r8, r18
    2f18:	b2 01       	movw	r22, r4
    2f1a:	ee 24       	eor	r14, r14
    2f1c:	ff 24       	eor	r15, r15
    2f1e:	87 01       	movw	r16, r14
        }
        else
        { // handle case of one pointers being null (if both null, test should pass)
            if (expected[j] != actual[j])
            {
                Unity.CurrentTestFailed = 1;
    2f20:	41 e0       	ldi	r20, 0x01	; 1
        UnityAddMsgIfSpecified(msg);
        UNITY_FAIL_AND_BAIL;
    }

    if (UnityCheckArraysForNull((void*)expected, (void*)actual, lineNumber, msg) == 1)
        return;
    2f22:	37 01       	movw	r6, r14
    2f24:	66 0c       	add	r6, r6
    2f26:	77 1c       	adc	r7, r7
    
    do
    {
        // if both pointers not null compare the strings
        if (expected[j] && actual[j])
    2f28:	f4 01       	movw	r30, r8
    2f2a:	20 81       	ld	r18, Z
    2f2c:	31 81       	ldd	r19, Z+1	; 0x01
    2f2e:	21 15       	cp	r18, r1
    2f30:	31 05       	cpc	r19, r1
    2f32:	99 f0       	breq	.+38     	; 0x2f5a <UnityAssertEqualStringArray+0xc4>
    2f34:	fb 01       	movw	r30, r22
    2f36:	80 81       	ld	r24, Z
    2f38:	91 81       	ldd	r25, Z+1	; 0x01
    2f3a:	00 97       	sbiw	r24, 0x00	; 0
    2f3c:	71 f0       	breq	.+28     	; 0x2f5a <UnityAssertEqualStringArray+0xc4>
    2f3e:	d9 01       	movw	r26, r18
    2f40:	fc 01       	movw	r30, r24
    2f42:	04 c0       	rjmp	.+8      	; 0x2f4c <UnityAssertEqualStringArray+0xb6>
        {
            for (i = 0; expected[j][i] || actual[j][i]; i++)
            {
                if (expected[j][i] != actual[j][i])
    2f44:	81 91       	ld	r24, Z+
    2f46:	11 96       	adiw	r26, 0x01	; 1
    2f48:	98 17       	cp	r25, r24
    2f4a:	69 f4       	brne	.+26     	; 0x2f66 <UnityAssertEqualStringArray+0xd0>
    do
    {
        // if both pointers not null compare the strings
        if (expected[j] && actual[j])
        {
            for (i = 0; expected[j][i] || actual[j][i]; i++)
    2f4c:	9c 91       	ld	r25, X
    2f4e:	99 23       	and	r25, r25
    2f50:	c9 f7       	brne	.-14     	; 0x2f44 <UnityAssertEqualStringArray+0xae>
    2f52:	80 81       	ld	r24, Z
    2f54:	88 23       	and	r24, r24
    2f56:	b1 f7       	brne	.-20     	; 0x2f44 <UnityAssertEqualStringArray+0xae>
    2f58:	08 c0       	rjmp	.+16     	; 0x2f6a <UnityAssertEqualStringArray+0xd4>
                }
            }
        }
        else
        { // handle case of one pointers being null (if both null, test should pass)
            if (expected[j] != actual[j])
    2f5a:	fb 01       	movw	r30, r22
    2f5c:	80 81       	ld	r24, Z
    2f5e:	91 81       	ldd	r25, Z+1	; 0x01
    2f60:	28 17       	cp	r18, r24
    2f62:	39 07       	cpc	r19, r25
    2f64:	11 f0       	breq	.+4      	; 0x2f6a <UnityAssertEqualStringArray+0xd4>
            {
                Unity.CurrentTestFailed = 1;
    2f66:	40 93 c4 02 	sts	0x02C4, r20
            }
        }

        if (Unity.CurrentTestFailed)
    2f6a:	80 91 c4 02 	lds	r24, 0x02C4
    2f6e:	88 23       	and	r24, r24
    2f70:	d9 f1       	breq	.+118    	; 0x2fe8 <UnityAssertEqualStringArray+0x152>
        {
            UnityTestResultsFailBegin(lineNumber);
    2f72:	89 81       	ldd	r24, Y+1	; 0x01
    2f74:	0e 94 d8 13 	call	0x27b0	; 0x27b0 <UnityTestResultsFailBegin>
            if (num_elements > 1)
    2f78:	f2 e0       	ldi	r31, 0x02	; 2
    2f7a:	af 16       	cp	r10, r31
    2f7c:	b1 04       	cpc	r11, r1
    2f7e:	c1 04       	cpc	r12, r1
    2f80:	d1 04       	cpc	r13, r1
    2f82:	a0 f0       	brcs	.+40     	; 0x2fac <UnityAssertEqualStringArray+0x116>
            {
                UnityPrint(UnityStrElement);
    2f84:	80 91 55 01 	lds	r24, 0x0155
    2f88:	90 91 56 01 	lds	r25, 0x0156
    2f8c:	0e 94 ad 12 	call	0x255a	; 0x255a <UnityPrint>
                UnityPrintNumberByStyle((num_elements - j - 1), UNITY_DISPLAY_STYLE_UINT);
    2f90:	08 94       	sec
    2f92:	a1 08       	sbc	r10, r1
    2f94:	b1 08       	sbc	r11, r1
    2f96:	c1 08       	sbc	r12, r1
    2f98:	d1 08       	sbc	r13, r1
    2f9a:	ae 18       	sub	r10, r14
    2f9c:	bf 08       	sbc	r11, r15
    2f9e:	c0 0a       	sbc	r12, r16
    2fa0:	d1 0a       	sbc	r13, r17
    2fa2:	c6 01       	movw	r24, r12
    2fa4:	b5 01       	movw	r22, r10
    2fa6:	44 ea       	ldi	r20, 0xA4	; 164
    2fa8:	0e 94 9e 12 	call	0x253c	; 0x253c <UnityPrintNumberByStyle>
            }
            UnityPrintExpectedAndActualStrings((const char*)(expected[j]), (const char*)(actual[j]));
    2fac:	64 0c       	add	r6, r4
    2fae:	75 1c       	adc	r7, r5
    2fb0:	f3 01       	movw	r30, r6
    2fb2:	60 81       	ld	r22, Z
    2fb4:	71 81       	ldd	r23, Z+1	; 0x01
    2fb6:	f4 01       	movw	r30, r8
    2fb8:	80 81       	ld	r24, Z
    2fba:	91 81       	ldd	r25, Z+1	; 0x01
    2fbc:	0e 94 57 13 	call	0x26ae	; 0x26ae <UnityPrintExpectedAndActualStrings>
            UnityAddMsgIfSpecified(msg);
    2fc0:	c1 01       	movw	r24, r2
    2fc2:	0e 94 fa 12 	call	0x25f4	; 0x25f4 <UnityAddMsgIfSpecified>
            UNITY_FAIL_AND_BAIL;
    2fc6:	81 e0       	ldi	r24, 0x01	; 1
    2fc8:	80 93 c4 02 	sts	0x02C4, r24
    2fcc:	60 91 81 03 	lds	r22, 0x0381
    2fd0:	70 91 82 03 	lds	r23, 0x0382
    2fd4:	8a e0       	ldi	r24, 0x0A	; 10
    2fd6:	90 e0       	ldi	r25, 0x00	; 0
    2fd8:	0e 94 db 1e 	call	0x3db6	; 0x3db6 <fputc>
    2fdc:	86 ec       	ldi	r24, 0xC6	; 198
    2fde:	92 e0       	ldi	r25, 0x02	; 2
    2fe0:	61 e0       	ldi	r22, 0x01	; 1
    2fe2:	70 e0       	ldi	r23, 0x00	; 0
    2fe4:	0e 94 5e 1e 	call	0x3cbc	; 0x3cbc <longjmp>
        } 
    } while (++j < num_elements);
    2fe8:	08 94       	sec
    2fea:	e1 1c       	adc	r14, r1
    2fec:	f1 1c       	adc	r15, r1
    2fee:	01 1d       	adc	r16, r1
    2ff0:	11 1d       	adc	r17, r1
    2ff2:	82 e0       	ldi	r24, 0x02	; 2
    2ff4:	90 e0       	ldi	r25, 0x00	; 0
    2ff6:	88 0e       	add	r8, r24
    2ff8:	99 1e       	adc	r9, r25
    2ffa:	6e 5f       	subi	r22, 0xFE	; 254
    2ffc:	7f 4f       	sbci	r23, 0xFF	; 255
    2ffe:	ea 14       	cp	r14, r10
    3000:	fb 04       	cpc	r15, r11
    3002:	0c 05       	cpc	r16, r12
    3004:	1d 05       	cpc	r17, r13
    3006:	08 f4       	brcc	.+2      	; 0x300a <UnityAssertEqualStringArray+0x174>
    3008:	8c cf       	rjmp	.-232    	; 0x2f22 <UnityAssertEqualStringArray+0x8c>
}
    300a:	0f 90       	pop	r0
    300c:	cf 91       	pop	r28
    300e:	df 91       	pop	r29
    3010:	1f 91       	pop	r17
    3012:	0f 91       	pop	r16
    3014:	ff 90       	pop	r15
    3016:	ef 90       	pop	r14
    3018:	df 90       	pop	r13
    301a:	cf 90       	pop	r12
    301c:	bf 90       	pop	r11
    301e:	af 90       	pop	r10
    3020:	9f 90       	pop	r9
    3022:	8f 90       	pop	r8
    3024:	7f 90       	pop	r7
    3026:	6f 90       	pop	r6
    3028:	5f 90       	pop	r5
    302a:	4f 90       	pop	r4
    302c:	3f 90       	pop	r3
    302e:	2f 90       	pop	r2
    3030:	08 95       	ret

00003032 <UnityAssertEqualFloatArray>:
void UnityAssertEqualFloatArray(const _UF* expected,
                                const _UF* actual,
                                const _UU32 num_elements,
                                const char* msg,
                                const UNITY_LINE_TYPE lineNumber)
{
    3032:	2f 92       	push	r2
    3034:	3f 92       	push	r3
    3036:	4f 92       	push	r4
    3038:	5f 92       	push	r5
    303a:	6f 92       	push	r6
    303c:	7f 92       	push	r7
    303e:	8f 92       	push	r8
    3040:	9f 92       	push	r9
    3042:	af 92       	push	r10
    3044:	bf 92       	push	r11
    3046:	cf 92       	push	r12
    3048:	df 92       	push	r13
    304a:	ef 92       	push	r14
    304c:	ff 92       	push	r15
    304e:	0f 93       	push	r16
    3050:	1f 93       	push	r17
    3052:	df 93       	push	r29
    3054:	cf 93       	push	r28
    3056:	cd b7       	in	r28, 0x3d	; 61
    3058:	de b7       	in	r29, 0x3e	; 62
    305a:	27 97       	sbiw	r28, 0x07	; 7
    305c:	0f b6       	in	r0, 0x3f	; 63
    305e:	f8 94       	cli
    3060:	de bf       	out	0x3e, r29	; 62
    3062:	0f be       	out	0x3f, r0	; 63
    3064:	cd bf       	out	0x3d, r28	; 61
    3066:	f8 2e       	mov	r15, r24
    3068:	d9 2e       	mov	r13, r25
    306a:	c6 2e       	mov	r12, r22
    306c:	b7 2e       	mov	r11, r23
    306e:	39 01       	movw	r6, r18
    3070:	4a 01       	movw	r8, r20
    3072:	1c 83       	std	Y+4, r17	; 0x04
    3074:	0b 83       	std	Y+3, r16	; 0x03
    3076:	ed 82       	std	Y+5, r14	; 0x05
    _UU32 elements = num_elements;
    const _UF* ptr_expected = expected;
    const _UF* ptr_actual = actual;
    _UF diff, tol;

    UNITY_SKIP_EXECUTION;
    3078:	80 91 c4 02 	lds	r24, 0x02C4
    307c:	88 23       	and	r24, r24
    307e:	09 f0       	breq	.+2      	; 0x3082 <UnityAssertEqualFloatArray+0x50>
    3080:	b6 c0       	rjmp	.+364    	; 0x31ee <UnityAssertEqualFloatArray+0x1bc>
    3082:	80 91 c5 02 	lds	r24, 0x02C5
    3086:	88 23       	and	r24, r24
    3088:	09 f0       	breq	.+2      	; 0x308c <UnityAssertEqualFloatArray+0x5a>
    308a:	b1 c0       	rjmp	.+354    	; 0x31ee <UnityAssertEqualFloatArray+0x1bc>
  
    if (elements == 0)
    308c:	21 15       	cp	r18, r1
    308e:	31 05       	cpc	r19, r1
    3090:	41 05       	cpc	r20, r1
    3092:	51 05       	cpc	r21, r1
    3094:	41 f4       	brne	.+16     	; 0x30a6 <UnityAssertEqualFloatArray+0x74>
    {
        UnityTestResultsFailBegin(lineNumber);
    3096:	8e 2d       	mov	r24, r14
    3098:	0e 94 d8 13 	call	0x27b0	; 0x27b0 <UnityTestResultsFailBegin>
        UnityPrint(UnityStrPointless);
    309c:	80 91 bd 01 	lds	r24, 0x01BD
    30a0:	90 91 be 01 	lds	r25, 0x01BE
    30a4:	7d c0       	rjmp	.+250    	; 0x31a0 <UnityAssertEqualFloatArray+0x16e>
        UnityAddMsgIfSpecified(msg);
        UNITY_FAIL_AND_BAIL;
    }
    
    if (UnityCheckArraysForNull((void*)expected, (void*)actual, lineNumber, msg) == 1)
    30a6:	8f 2d       	mov	r24, r15
    30a8:	4d 81       	ldd	r20, Y+5	; 0x05
    30aa:	2b 81       	ldd	r18, Y+3	; 0x03
    30ac:	3c 81       	ldd	r19, Y+4	; 0x04
    30ae:	0e 94 14 17 	call	0x2e28	; 0x2e28 <UnityCheckArraysForNull>
    30b2:	01 97       	sbiw	r24, 0x01	; 1
    30b4:	09 f4       	brne	.+2      	; 0x30b8 <UnityAssertEqualFloatArray+0x86>
    30b6:	9b c0       	rjmp	.+310    	; 0x31ee <UnityAssertEqualFloatArray+0x1bc>
        return;
    30b8:	13 01       	movw	r2, r6
    30ba:	24 01       	movw	r4, r8
    30bc:	2f 2d       	mov	r18, r15
    30be:	3d 2d       	mov	r19, r13
    30c0:	c9 01       	movw	r24, r18
    30c2:	9a 83       	std	Y+2, r25	; 0x02
    30c4:	89 83       	std	Y+1, r24	; 0x01
    30c6:	2c 2d       	mov	r18, r12
    30c8:	3b 2d       	mov	r19, r11
    30ca:	c9 01       	movw	r24, r18
    30cc:	9f 83       	std	Y+7, r25	; 0x07
    30ce:	8e 83       	std	Y+6, r24	; 0x06

    while (elements--)
    {
        diff = *ptr_expected - *ptr_actual;
    30d0:	e9 81       	ldd	r30, Y+1	; 0x01
    30d2:	fa 81       	ldd	r31, Y+2	; 0x02
    30d4:	e0 80       	ld	r14, Z
    30d6:	f1 80       	ldd	r15, Z+1	; 0x01
    30d8:	02 81       	ldd	r16, Z+2	; 0x02
    30da:	13 81       	ldd	r17, Z+3	; 0x03
    30dc:	c8 01       	movw	r24, r16
    30de:	b7 01       	movw	r22, r14
    30e0:	ee 81       	ldd	r30, Y+6	; 0x06
    30e2:	ff 81       	ldd	r31, Y+7	; 0x07
    30e4:	20 81       	ld	r18, Z
    30e6:	31 81       	ldd	r19, Z+1	; 0x01
    30e8:	42 81       	ldd	r20, Z+2	; 0x02
    30ea:	53 81       	ldd	r21, Z+3	; 0x03
    30ec:	0e 94 47 1b 	call	0x368e	; 0x368e <__subsf3>
    30f0:	5b 01       	movw	r10, r22
    30f2:	6c 01       	movw	r12, r24
        if (diff < 0.0)
    30f4:	20 e0       	ldi	r18, 0x00	; 0
    30f6:	30 e0       	ldi	r19, 0x00	; 0
    30f8:	40 e0       	ldi	r20, 0x00	; 0
    30fa:	50 e0       	ldi	r21, 0x00	; 0
    30fc:	0e 94 ac 1b 	call	0x3758	; 0x3758 <__cmpsf2>
    3100:	88 23       	and	r24, r24
    3102:	54 f4       	brge	.+20     	; 0x3118 <UnityAssertEqualFloatArray+0xe6>
          diff = 0.0 - diff;
    3104:	60 e0       	ldi	r22, 0x00	; 0
    3106:	70 e0       	ldi	r23, 0x00	; 0
    3108:	80 e0       	ldi	r24, 0x00	; 0
    310a:	90 e0       	ldi	r25, 0x00	; 0
    310c:	a6 01       	movw	r20, r12
    310e:	95 01       	movw	r18, r10
    3110:	0e 94 47 1b 	call	0x368e	; 0x368e <__subsf3>
    3114:	5b 01       	movw	r10, r22
    3116:	6c 01       	movw	r12, r24
        tol = UNITY_FLOAT_PRECISION * *ptr_expected;
    3118:	c8 01       	movw	r24, r16
    311a:	b7 01       	movw	r22, r14
    311c:	2c ea       	ldi	r18, 0xAC	; 172
    311e:	35 ec       	ldi	r19, 0xC5	; 197
    3120:	47 e2       	ldi	r20, 0x27	; 39
    3122:	57 e3       	ldi	r21, 0x37	; 55
    3124:	0e 94 29 1c 	call	0x3852	; 0x3852 <__mulsf3>
    3128:	7b 01       	movw	r14, r22
    312a:	8c 01       	movw	r16, r24
        if (tol < 0.0)
    312c:	20 e0       	ldi	r18, 0x00	; 0
    312e:	30 e0       	ldi	r19, 0x00	; 0
    3130:	40 e0       	ldi	r20, 0x00	; 0
    3132:	50 e0       	ldi	r21, 0x00	; 0
    3134:	0e 94 ac 1b 	call	0x3758	; 0x3758 <__cmpsf2>
    3138:	88 23       	and	r24, r24
    313a:	54 f4       	brge	.+20     	; 0x3150 <UnityAssertEqualFloatArray+0x11e>
            tol = 0.0 - tol;
    313c:	60 e0       	ldi	r22, 0x00	; 0
    313e:	70 e0       	ldi	r23, 0x00	; 0
    3140:	80 e0       	ldi	r24, 0x00	; 0
    3142:	90 e0       	ldi	r25, 0x00	; 0
    3144:	a8 01       	movw	r20, r16
    3146:	97 01       	movw	r18, r14
    3148:	0e 94 47 1b 	call	0x368e	; 0x368e <__subsf3>
    314c:	7b 01       	movw	r14, r22
    314e:	8c 01       	movw	r16, r24
    }
    
    if (UnityCheckArraysForNull((void*)expected, (void*)actual, lineNumber, msg) == 1)
        return;

    while (elements--)
    3150:	08 94       	sec
    3152:	21 08       	sbc	r2, r1
    3154:	31 08       	sbc	r3, r1
    3156:	41 08       	sbc	r4, r1
    3158:	51 08       	sbc	r5, r1
        if (diff < 0.0)
          diff = 0.0 - diff;
        tol = UNITY_FLOAT_PRECISION * *ptr_expected;
        if (tol < 0.0)
            tol = 0.0 - tol;
        if (diff > tol)
    315a:	c6 01       	movw	r24, r12
    315c:	b5 01       	movw	r22, r10
    315e:	a8 01       	movw	r20, r16
    3160:	97 01       	movw	r18, r14
    3162:	0e 94 25 1c 	call	0x384a	; 0x384a <__gesf2>
    3166:	18 16       	cp	r1, r24
    3168:	94 f5       	brge	.+100    	; 0x31ce <UnityAssertEqualFloatArray+0x19c>
        {
            UnityTestResultsFailBegin(lineNumber);
    316a:	8d 81       	ldd	r24, Y+5	; 0x05
    316c:	0e 94 d8 13 	call	0x27b0	; 0x27b0 <UnityTestResultsFailBegin>
            UnityPrint(UnityStrElement);
    3170:	80 91 55 01 	lds	r24, 0x0155
    3174:	90 91 56 01 	lds	r25, 0x0156
    3178:	0e 94 ad 12 	call	0x255a	; 0x255a <UnityPrint>
            UnityPrintNumberByStyle((num_elements - elements - 1), UNITY_DISPLAY_STYLE_UINT);
    317c:	08 94       	sec
    317e:	61 08       	sbc	r6, r1
    3180:	71 08       	sbc	r7, r1
    3182:	81 08       	sbc	r8, r1
    3184:	91 08       	sbc	r9, r1
    3186:	62 18       	sub	r6, r2
    3188:	73 08       	sbc	r7, r3
    318a:	84 08       	sbc	r8, r4
    318c:	95 08       	sbc	r9, r5
    318e:	c4 01       	movw	r24, r8
    3190:	b3 01       	movw	r22, r6
    3192:	44 ea       	ldi	r20, 0xA4	; 164
    3194:	0e 94 9e 12 	call	0x253c	; 0x253c <UnityPrintNumberByStyle>
            UnityPrint(UnityStrExpected);
            UnityPrintFloat(*ptr_expected);
            UnityPrint(UnityStrWas);
            UnityPrintFloat(*ptr_actual);
#else
            UnityPrint(UnityStrDelta);
    3198:	80 91 84 01 	lds	r24, 0x0184
    319c:	90 91 85 01 	lds	r25, 0x0185
    31a0:	0e 94 ad 12 	call	0x255a	; 0x255a <UnityPrint>
#endif
            UnityAddMsgIfSpecified(msg);
    31a4:	8b 81       	ldd	r24, Y+3	; 0x03
    31a6:	9c 81       	ldd	r25, Y+4	; 0x04
    31a8:	0e 94 fa 12 	call	0x25f4	; 0x25f4 <UnityAddMsgIfSpecified>
            UNITY_FAIL_AND_BAIL;
    31ac:	81 e0       	ldi	r24, 0x01	; 1
    31ae:	80 93 c4 02 	sts	0x02C4, r24
    31b2:	60 91 81 03 	lds	r22, 0x0381
    31b6:	70 91 82 03 	lds	r23, 0x0382
    31ba:	8a e0       	ldi	r24, 0x0A	; 10
    31bc:	90 e0       	ldi	r25, 0x00	; 0
    31be:	0e 94 db 1e 	call	0x3db6	; 0x3db6 <fputc>
    31c2:	86 ec       	ldi	r24, 0xC6	; 198
    31c4:	92 e0       	ldi	r25, 0x02	; 2
    31c6:	61 e0       	ldi	r22, 0x01	; 1
    31c8:	70 e0       	ldi	r23, 0x00	; 0
    31ca:	0e 94 5e 1e 	call	0x3cbc	; 0x3cbc <longjmp>
        }
        ptr_expected++;
    31ce:	89 81       	ldd	r24, Y+1	; 0x01
    31d0:	9a 81       	ldd	r25, Y+2	; 0x02
    31d2:	04 96       	adiw	r24, 0x04	; 4
    31d4:	9a 83       	std	Y+2, r25	; 0x02
    31d6:	89 83       	std	Y+1, r24	; 0x01
        ptr_actual++;
    31d8:	ee 81       	ldd	r30, Y+6	; 0x06
    31da:	ff 81       	ldd	r31, Y+7	; 0x07
    31dc:	34 96       	adiw	r30, 0x04	; 4
    31de:	ff 83       	std	Y+7, r31	; 0x07
    31e0:	ee 83       	std	Y+6, r30	; 0x06
    }
    
    if (UnityCheckArraysForNull((void*)expected, (void*)actual, lineNumber, msg) == 1)
        return;

    while (elements--)
    31e2:	21 14       	cp	r2, r1
    31e4:	31 04       	cpc	r3, r1
    31e6:	41 04       	cpc	r4, r1
    31e8:	51 04       	cpc	r5, r1
    31ea:	09 f0       	breq	.+2      	; 0x31ee <UnityAssertEqualFloatArray+0x1bc>
    31ec:	71 cf       	rjmp	.-286    	; 0x30d0 <UnityAssertEqualFloatArray+0x9e>
            UNITY_FAIL_AND_BAIL;
        }
        ptr_expected++;
        ptr_actual++;
    }
}
    31ee:	27 96       	adiw	r28, 0x07	; 7
    31f0:	0f b6       	in	r0, 0x3f	; 63
    31f2:	f8 94       	cli
    31f4:	de bf       	out	0x3e, r29	; 62
    31f6:	0f be       	out	0x3f, r0	; 63
    31f8:	cd bf       	out	0x3d, r28	; 61
    31fa:	cf 91       	pop	r28
    31fc:	df 91       	pop	r29
    31fe:	1f 91       	pop	r17
    3200:	0f 91       	pop	r16
    3202:	ff 90       	pop	r15
    3204:	ef 90       	pop	r14
    3206:	df 90       	pop	r13
    3208:	cf 90       	pop	r12
    320a:	bf 90       	pop	r11
    320c:	af 90       	pop	r10
    320e:	9f 90       	pop	r9
    3210:	8f 90       	pop	r8
    3212:	7f 90       	pop	r7
    3214:	6f 90       	pop	r6
    3216:	5f 90       	pop	r5
    3218:	4f 90       	pop	r4
    321a:	3f 90       	pop	r3
    321c:	2f 90       	pop	r2
    321e:	08 95       	ret

00003220 <UnityAssertEqualIntArray>:
                              const _U_SINT* actual,
                              const _UU32 num_elements,
                              const char* msg,
                              const UNITY_LINE_TYPE lineNumber,
                              const UNITY_DISPLAY_STYLE_T style)
{
    3220:	2f 92       	push	r2
    3222:	3f 92       	push	r3
    3224:	4f 92       	push	r4
    3226:	5f 92       	push	r5
    3228:	6f 92       	push	r6
    322a:	7f 92       	push	r7
    322c:	8f 92       	push	r8
    322e:	9f 92       	push	r9
    3230:	af 92       	push	r10
    3232:	bf 92       	push	r11
    3234:	cf 92       	push	r12
    3236:	df 92       	push	r13
    3238:	ef 92       	push	r14
    323a:	ff 92       	push	r15
    323c:	0f 93       	push	r16
    323e:	1f 93       	push	r17
    3240:	cf 93       	push	r28
    3242:	df 93       	push	r29
    3244:	f8 2e       	mov	r15, r24
    3246:	d9 2e       	mov	r13, r25
    3248:	36 2e       	mov	r3, r22
    324a:	27 2e       	mov	r2, r23
    324c:	49 01       	movw	r8, r18
    324e:	5a 01       	movw	r10, r20
    3250:	28 01       	movw	r4, r16
    3252:	6e 2c       	mov	r6, r14
    3254:	7c 2c       	mov	r7, r12
    _UU32 elements = num_elements;
    const _US8* ptr_exp = (_US8*)expected;
    const _US8* ptr_act = (_US8*)actual;

    UNITY_SKIP_EXECUTION;
    3256:	80 91 c4 02 	lds	r24, 0x02C4
    325a:	88 23       	and	r24, r24
    325c:	09 f0       	breq	.+2      	; 0x3260 <UnityAssertEqualIntArray+0x40>
    325e:	3e c1       	rjmp	.+636    	; 0x34dc <UnityAssertEqualIntArray+0x2bc>
    3260:	80 91 c5 02 	lds	r24, 0x02C5
    3264:	88 23       	and	r24, r24
    3266:	09 f0       	breq	.+2      	; 0x326a <UnityAssertEqualIntArray+0x4a>
    3268:	39 c1       	rjmp	.+626    	; 0x34dc <UnityAssertEqualIntArray+0x2bc>
  
    if (elements == 0)
    326a:	21 15       	cp	r18, r1
    326c:	31 05       	cpc	r19, r1
    326e:	41 05       	cpc	r20, r1
    3270:	51 05       	cpc	r21, r1
    3272:	51 f4       	brne	.+20     	; 0x3288 <UnityAssertEqualIntArray+0x68>
    {
        UnityTestResultsFailBegin(lineNumber);
    3274:	8e 2d       	mov	r24, r14
    3276:	0e 94 d8 13 	call	0x27b0	; 0x27b0 <UnityTestResultsFailBegin>
        UnityPrint(UnityStrPointless);
    327a:	80 91 bd 01 	lds	r24, 0x01BD
    327e:	90 91 be 01 	lds	r25, 0x01BE
    3282:	0e 94 ad 12 	call	0x255a	; 0x255a <UnityPrint>
    3286:	6c c0       	rjmp	.+216    	; 0x3360 <UnityAssertEqualIntArray+0x140>
        UnityAddMsgIfSpecified(msg);
        UNITY_FAIL_AND_BAIL;
    }
    
    if (UnityCheckArraysForNull((void*)expected, (void*)actual, lineNumber, msg) == 1)
    3288:	8f 2d       	mov	r24, r15
    328a:	4e 2d       	mov	r20, r14
    328c:	98 01       	movw	r18, r16
    328e:	0e 94 14 17 	call	0x2e28	; 0x2e28 <UnityCheckArraysForNull>
    3292:	01 97       	sbiw	r24, 0x01	; 1
    3294:	09 f4       	brne	.+2      	; 0x3298 <UnityAssertEqualIntArray+0x78>
    3296:	22 c1       	rjmp	.+580    	; 0x34dc <UnityAssertEqualIntArray+0x2bc>
                              const char* msg,
                              const UNITY_LINE_TYPE lineNumber,
                              const UNITY_DISPLAY_STYLE_T style)
{
    _UU32 elements = num_elements;
    const _US8* ptr_exp = (_US8*)expected;
    3298:	2f 2d       	mov	r18, r15
    329a:	3d 2d       	mov	r19, r13
    329c:	c9 01       	movw	r24, r18
    329e:	ec 01       	movw	r28, r24
    const _US8* ptr_act = (_US8*)actual;
    32a0:	23 2d       	mov	r18, r3
    32a2:	32 2d       	mov	r19, r2
    32a4:	c9 01       	movw	r24, r18
    32a6:	6c 01       	movw	r12, r24
    }
    
    if (UnityCheckArraysForNull((void*)expected, (void*)actual, lineNumber, msg) == 1)
        return;

    switch(style)
    32a8:	81 e2       	ldi	r24, 0x21	; 33
    32aa:	78 16       	cp	r7, r24
    32ac:	b1 f0       	breq	.+44     	; 0x32da <UnityAssertEqualIntArray+0xba>
    32ae:	87 15       	cp	r24, r7
    32b0:	40 f0       	brcs	.+16     	; 0x32c2 <UnityAssertEqualIntArray+0xa2>
    32b2:	91 e1       	ldi	r25, 0x11	; 17
    32b4:	79 16       	cp	r7, r25
    32b6:	89 f0       	breq	.+34     	; 0x32da <UnityAssertEqualIntArray+0xba>
    32b8:	e2 e1       	ldi	r30, 0x12	; 18
    32ba:	7e 16       	cp	r7, r30
    32bc:	09 f0       	breq	.+2      	; 0x32c0 <UnityAssertEqualIntArray+0xa0>
    32be:	be c0       	rjmp	.+380    	; 0x343c <UnityAssertEqualIntArray+0x21c>
    32c0:	6e c0       	rjmp	.+220    	; 0x339e <UnityAssertEqualIntArray+0x17e>
    32c2:	f1 e4       	ldi	r31, 0x41	; 65
    32c4:	7f 16       	cp	r7, r31
    32c6:	49 f0       	breq	.+18     	; 0x32da <UnityAssertEqualIntArray+0xba>
    32c8:	82 e4       	ldi	r24, 0x42	; 66
    32ca:	78 16       	cp	r7, r24
    32cc:	09 f4       	brne	.+2      	; 0x32d0 <UnityAssertEqualIntArray+0xb0>
    32ce:	67 c0       	rjmp	.+206    	; 0x339e <UnityAssertEqualIntArray+0x17e>
    32d0:	92 e2       	ldi	r25, 0x22	; 34
    32d2:	79 16       	cp	r7, r25
    32d4:	09 f0       	breq	.+2      	; 0x32d8 <UnityAssertEqualIntArray+0xb8>
    32d6:	b2 c0       	rjmp	.+356    	; 0x343c <UnityAssertEqualIntArray+0x21c>
    32d8:	62 c0       	rjmp	.+196    	; 0x339e <UnityAssertEqualIntArray+0x17e>
    32da:	85 01       	movw	r16, r10
    32dc:	74 01       	movw	r14, r8
    {
        case UNITY_DISPLAY_STYLE_HEX8:
        case UNITY_DISPLAY_STYLE_INT8:
        case UNITY_DISPLAY_STYLE_UINT8:
            while (elements--)
    32de:	08 94       	sec
    32e0:	e1 08       	sbc	r14, r1
    32e2:	f1 08       	sbc	r15, r1
    32e4:	01 09       	sbc	r16, r1
    32e6:	11 09       	sbc	r17, r1
            {
                if (*ptr_exp != *ptr_act)
    32e8:	98 81       	ld	r25, Y
    32ea:	f6 01       	movw	r30, r12
    32ec:	80 81       	ld	r24, Z
    32ee:	98 17       	cp	r25, r24
    32f0:	09 f4       	brne	.+2      	; 0x32f4 <UnityAssertEqualIntArray+0xd4>
    32f2:	4a c0       	rjmp	.+148    	; 0x3388 <UnityAssertEqualIntArray+0x168>
                {
                    UnityTestResultsFailBegin(lineNumber);
    32f4:	86 2d       	mov	r24, r6
    32f6:	0e 94 d8 13 	call	0x27b0	; 0x27b0 <UnityTestResultsFailBegin>
                    UnityPrint(UnityStrElement);
    32fa:	80 91 55 01 	lds	r24, 0x0155
    32fe:	90 91 56 01 	lds	r25, 0x0156
    3302:	0e 94 ad 12 	call	0x255a	; 0x255a <UnityPrint>
                    UnityPrintNumberByStyle((num_elements - elements - 1), UNITY_DISPLAY_STYLE_UINT);
    3306:	08 94       	sec
    3308:	81 08       	sbc	r8, r1
    330a:	91 08       	sbc	r9, r1
    330c:	a1 08       	sbc	r10, r1
    330e:	b1 08       	sbc	r11, r1
    3310:	8e 18       	sub	r8, r14
    3312:	9f 08       	sbc	r9, r15
    3314:	a0 0a       	sbc	r10, r16
    3316:	b1 0a       	sbc	r11, r17
    3318:	c5 01       	movw	r24, r10
    331a:	b4 01       	movw	r22, r8
    331c:	44 ea       	ldi	r20, 0xA4	; 164
    331e:	0e 94 9e 12 	call	0x253c	; 0x253c <UnityPrintNumberByStyle>
                    UnityPrint(UnityStrExpected);
    3322:	80 91 3a 01 	lds	r24, 0x013A
    3326:	90 91 3b 01 	lds	r25, 0x013B
    332a:	0e 94 ad 12 	call	0x255a	; 0x255a <UnityPrint>
                    UnityPrintNumberByStyle(*ptr_exp, style);
    332e:	68 81       	ld	r22, Y
    3330:	77 27       	eor	r23, r23
    3332:	67 fd       	sbrc	r22, 7
    3334:	70 95       	com	r23
    3336:	87 2f       	mov	r24, r23
    3338:	97 2f       	mov	r25, r23
    333a:	47 2d       	mov	r20, r7
    333c:	0e 94 9e 12 	call	0x253c	; 0x253c <UnityPrintNumberByStyle>
                    UnityPrint(UnityStrWas);
    3340:	80 91 42 01 	lds	r24, 0x0142
    3344:	90 91 43 01 	lds	r25, 0x0143
    3348:	0e 94 ad 12 	call	0x255a	; 0x255a <UnityPrint>
                    UnityPrintNumberByStyle(*ptr_act, style);
    334c:	f6 01       	movw	r30, r12
    334e:	60 81       	ld	r22, Z
    3350:	77 27       	eor	r23, r23
    3352:	67 fd       	sbrc	r22, 7
    3354:	70 95       	com	r23
    3356:	87 2f       	mov	r24, r23
    3358:	97 2f       	mov	r25, r23
    335a:	47 2d       	mov	r20, r7
    335c:	0e 94 9e 12 	call	0x253c	; 0x253c <UnityPrintNumberByStyle>
                    UnityAddMsgIfSpecified(msg);
    3360:	c2 01       	movw	r24, r4
    3362:	0e 94 fa 12 	call	0x25f4	; 0x25f4 <UnityAddMsgIfSpecified>
                    UNITY_FAIL_AND_BAIL;
    3366:	81 e0       	ldi	r24, 0x01	; 1
    3368:	80 93 c4 02 	sts	0x02C4, r24
    336c:	60 91 81 03 	lds	r22, 0x0381
    3370:	70 91 82 03 	lds	r23, 0x0382
    3374:	8a e0       	ldi	r24, 0x0A	; 10
    3376:	90 e0       	ldi	r25, 0x00	; 0
    3378:	0e 94 db 1e 	call	0x3db6	; 0x3db6 <fputc>
    337c:	86 ec       	ldi	r24, 0xC6	; 198
    337e:	92 e0       	ldi	r25, 0x02	; 2
    3380:	61 e0       	ldi	r22, 0x01	; 1
    3382:	70 e0       	ldi	r23, 0x00	; 0
    3384:	0e 94 5e 1e 	call	0x3cbc	; 0x3cbc <longjmp>
                }
                ptr_exp += 1;
    3388:	21 96       	adiw	r28, 0x01	; 1
                ptr_act += 1;
    338a:	08 94       	sec
    338c:	c1 1c       	adc	r12, r1
    338e:	d1 1c       	adc	r13, r1
    switch(style)
    {
        case UNITY_DISPLAY_STYLE_HEX8:
        case UNITY_DISPLAY_STYLE_INT8:
        case UNITY_DISPLAY_STYLE_UINT8:
            while (elements--)
    3390:	e1 14       	cp	r14, r1
    3392:	f1 04       	cpc	r15, r1
    3394:	01 05       	cpc	r16, r1
    3396:	11 05       	cpc	r17, r1
    3398:	09 f0       	breq	.+2      	; 0x339c <UnityAssertEqualIntArray+0x17c>
    339a:	a1 cf       	rjmp	.-190    	; 0x32de <UnityAssertEqualIntArray+0xbe>
    339c:	9f c0       	rjmp	.+318    	; 0x34dc <UnityAssertEqualIntArray+0x2bc>
    339e:	85 01       	movw	r16, r10
    33a0:	74 01       	movw	r14, r8
            }
            break;
        case UNITY_DISPLAY_STYLE_HEX16:
        case UNITY_DISPLAY_STYLE_INT16:
        case UNITY_DISPLAY_STYLE_UINT16:
            while (elements--)
    33a2:	08 94       	sec
    33a4:	e1 08       	sbc	r14, r1
    33a6:	f1 08       	sbc	r15, r1
    33a8:	01 09       	sbc	r16, r1
    33aa:	11 09       	sbc	r17, r1
            {
                if (*(_US16*)ptr_exp != *(_US16*)ptr_act)
    33ac:	28 81       	ld	r18, Y
    33ae:	39 81       	ldd	r19, Y+1	; 0x01
    33b0:	f6 01       	movw	r30, r12
    33b2:	80 81       	ld	r24, Z
    33b4:	91 81       	ldd	r25, Z+1	; 0x01
    33b6:	28 17       	cp	r18, r24
    33b8:	39 07       	cpc	r19, r25
    33ba:	a1 f1       	breq	.+104    	; 0x3424 <UnityAssertEqualIntArray+0x204>
                {
                    UnityTestResultsFailBegin(lineNumber);
    33bc:	86 2d       	mov	r24, r6
    33be:	0e 94 d8 13 	call	0x27b0	; 0x27b0 <UnityTestResultsFailBegin>
                    UnityPrint(UnityStrElement);
    33c2:	80 91 55 01 	lds	r24, 0x0155
    33c6:	90 91 56 01 	lds	r25, 0x0156
    33ca:	0e 94 ad 12 	call	0x255a	; 0x255a <UnityPrint>
                    UnityPrintNumberByStyle((num_elements - elements - 1), UNITY_DISPLAY_STYLE_UINT);
    33ce:	08 94       	sec
    33d0:	81 08       	sbc	r8, r1
    33d2:	91 08       	sbc	r9, r1
    33d4:	a1 08       	sbc	r10, r1
    33d6:	b1 08       	sbc	r11, r1
    33d8:	8e 18       	sub	r8, r14
    33da:	9f 08       	sbc	r9, r15
    33dc:	a0 0a       	sbc	r10, r16
    33de:	b1 0a       	sbc	r11, r17
    33e0:	c5 01       	movw	r24, r10
    33e2:	b4 01       	movw	r22, r8
    33e4:	44 ea       	ldi	r20, 0xA4	; 164
    33e6:	0e 94 9e 12 	call	0x253c	; 0x253c <UnityPrintNumberByStyle>
                    UnityPrint(UnityStrExpected);
    33ea:	80 91 3a 01 	lds	r24, 0x013A
    33ee:	90 91 3b 01 	lds	r25, 0x013B
    33f2:	0e 94 ad 12 	call	0x255a	; 0x255a <UnityPrint>
                    UnityPrintNumberByStyle(*(_US16*)ptr_exp, style);
    33f6:	68 81       	ld	r22, Y
    33f8:	79 81       	ldd	r23, Y+1	; 0x01
    33fa:	88 27       	eor	r24, r24
    33fc:	77 fd       	sbrc	r23, 7
    33fe:	80 95       	com	r24
    3400:	98 2f       	mov	r25, r24
    3402:	47 2d       	mov	r20, r7
    3404:	0e 94 9e 12 	call	0x253c	; 0x253c <UnityPrintNumberByStyle>
                    UnityPrint(UnityStrWas);
    3408:	80 91 42 01 	lds	r24, 0x0142
    340c:	90 91 43 01 	lds	r25, 0x0143
    3410:	0e 94 ad 12 	call	0x255a	; 0x255a <UnityPrint>
                    UnityPrintNumberByStyle(*(_US16*)ptr_act, style);
    3414:	f6 01       	movw	r30, r12
    3416:	60 81       	ld	r22, Z
    3418:	71 81       	ldd	r23, Z+1	; 0x01
    341a:	88 27       	eor	r24, r24
    341c:	77 fd       	sbrc	r23, 7
    341e:	80 95       	com	r24
    3420:	98 2f       	mov	r25, r24
    3422:	9b cf       	rjmp	.-202    	; 0x335a <UnityAssertEqualIntArray+0x13a>
                    UnityAddMsgIfSpecified(msg);
                    UNITY_FAIL_AND_BAIL;
                }
                ptr_exp += 2;
    3424:	22 96       	adiw	r28, 0x02	; 2
                ptr_act += 2;
    3426:	82 e0       	ldi	r24, 0x02	; 2
    3428:	90 e0       	ldi	r25, 0x00	; 0
    342a:	c8 0e       	add	r12, r24
    342c:	d9 1e       	adc	r13, r25
            }
            break;
        case UNITY_DISPLAY_STYLE_HEX16:
        case UNITY_DISPLAY_STYLE_INT16:
        case UNITY_DISPLAY_STYLE_UINT16:
            while (elements--)
    342e:	e1 14       	cp	r14, r1
    3430:	f1 04       	cpc	r15, r1
    3432:	01 05       	cpc	r16, r1
    3434:	11 05       	cpc	r17, r1
    3436:	09 f0       	breq	.+2      	; 0x343a <UnityAssertEqualIntArray+0x21a>
    3438:	b4 cf       	rjmp	.-152    	; 0x33a2 <UnityAssertEqualIntArray+0x182>
    343a:	50 c0       	rjmp	.+160    	; 0x34dc <UnityAssertEqualIntArray+0x2bc>
    343c:	85 01       	movw	r16, r10
    343e:	74 01       	movw	r14, r8
                ptr_act += 8;
            }
            break;
#endif
        default:
            while (elements--)
    3440:	08 94       	sec
    3442:	e1 08       	sbc	r14, r1
    3444:	f1 08       	sbc	r15, r1
    3446:	01 09       	sbc	r16, r1
    3448:	11 09       	sbc	r17, r1
            {
                if (*(_US32*)ptr_exp != *(_US32*)ptr_act)
    344a:	28 81       	ld	r18, Y
    344c:	39 81       	ldd	r19, Y+1	; 0x01
    344e:	4a 81       	ldd	r20, Y+2	; 0x02
    3450:	5b 81       	ldd	r21, Y+3	; 0x03
    3452:	f6 01       	movw	r30, r12
    3454:	80 81       	ld	r24, Z
    3456:	91 81       	ldd	r25, Z+1	; 0x01
    3458:	a2 81       	ldd	r26, Z+2	; 0x02
    345a:	b3 81       	ldd	r27, Z+3	; 0x03
    345c:	28 17       	cp	r18, r24
    345e:	39 07       	cpc	r19, r25
    3460:	4a 07       	cpc	r20, r26
    3462:	5b 07       	cpc	r21, r27
    3464:	81 f1       	breq	.+96     	; 0x34c6 <UnityAssertEqualIntArray+0x2a6>
                {
                    UnityTestResultsFailBegin(lineNumber);
    3466:	86 2d       	mov	r24, r6
    3468:	0e 94 d8 13 	call	0x27b0	; 0x27b0 <UnityTestResultsFailBegin>
                    UnityPrint(UnityStrElement);
    346c:	80 91 55 01 	lds	r24, 0x0155
    3470:	90 91 56 01 	lds	r25, 0x0156
    3474:	0e 94 ad 12 	call	0x255a	; 0x255a <UnityPrint>
                    UnityPrintNumberByStyle((num_elements - elements - 1), UNITY_DISPLAY_STYLE_UINT);
    3478:	08 94       	sec
    347a:	81 08       	sbc	r8, r1
    347c:	91 08       	sbc	r9, r1
    347e:	a1 08       	sbc	r10, r1
    3480:	b1 08       	sbc	r11, r1
    3482:	8e 18       	sub	r8, r14
    3484:	9f 08       	sbc	r9, r15
    3486:	a0 0a       	sbc	r10, r16
    3488:	b1 0a       	sbc	r11, r17
    348a:	c5 01       	movw	r24, r10
    348c:	b4 01       	movw	r22, r8
    348e:	44 ea       	ldi	r20, 0xA4	; 164
    3490:	0e 94 9e 12 	call	0x253c	; 0x253c <UnityPrintNumberByStyle>
                    UnityPrint(UnityStrExpected);
    3494:	80 91 3a 01 	lds	r24, 0x013A
    3498:	90 91 3b 01 	lds	r25, 0x013B
    349c:	0e 94 ad 12 	call	0x255a	; 0x255a <UnityPrint>
                    UnityPrintNumberByStyle(*(_US32*)ptr_exp, style);
    34a0:	68 81       	ld	r22, Y
    34a2:	79 81       	ldd	r23, Y+1	; 0x01
    34a4:	8a 81       	ldd	r24, Y+2	; 0x02
    34a6:	9b 81       	ldd	r25, Y+3	; 0x03
    34a8:	47 2d       	mov	r20, r7
    34aa:	0e 94 9e 12 	call	0x253c	; 0x253c <UnityPrintNumberByStyle>
                    UnityPrint(UnityStrWas);
    34ae:	80 91 42 01 	lds	r24, 0x0142
    34b2:	90 91 43 01 	lds	r25, 0x0143
    34b6:	0e 94 ad 12 	call	0x255a	; 0x255a <UnityPrint>
                    UnityPrintNumberByStyle(*(_US32*)ptr_act, style);
    34ba:	f6 01       	movw	r30, r12
    34bc:	60 81       	ld	r22, Z
    34be:	71 81       	ldd	r23, Z+1	; 0x01
    34c0:	82 81       	ldd	r24, Z+2	; 0x02
    34c2:	93 81       	ldd	r25, Z+3	; 0x03
    34c4:	4a cf       	rjmp	.-364    	; 0x335a <UnityAssertEqualIntArray+0x13a>
                    UnityAddMsgIfSpecified(msg);
                    UNITY_FAIL_AND_BAIL;
                }
                ptr_exp += 4;
    34c6:	24 96       	adiw	r28, 0x04	; 4
                ptr_act += 4;
    34c8:	84 e0       	ldi	r24, 0x04	; 4
    34ca:	90 e0       	ldi	r25, 0x00	; 0
    34cc:	c8 0e       	add	r12, r24
    34ce:	d9 1e       	adc	r13, r25
                ptr_act += 8;
            }
            break;
#endif
        default:
            while (elements--)
    34d0:	e1 14       	cp	r14, r1
    34d2:	f1 04       	cpc	r15, r1
    34d4:	01 05       	cpc	r16, r1
    34d6:	11 05       	cpc	r17, r1
    34d8:	09 f0       	breq	.+2      	; 0x34dc <UnityAssertEqualIntArray+0x2bc>
    34da:	b2 cf       	rjmp	.-156    	; 0x3440 <UnityAssertEqualIntArray+0x220>
                ptr_exp += 4;
                ptr_act += 4;
            }
            break;
    }
}
    34dc:	df 91       	pop	r29
    34de:	cf 91       	pop	r28
    34e0:	1f 91       	pop	r17
    34e2:	0f 91       	pop	r16
    34e4:	ff 90       	pop	r15
    34e6:	ef 90       	pop	r14
    34e8:	df 90       	pop	r13
    34ea:	cf 90       	pop	r12
    34ec:	bf 90       	pop	r11
    34ee:	af 90       	pop	r10
    34f0:	9f 90       	pop	r9
    34f2:	8f 90       	pop	r8
    34f4:	7f 90       	pop	r7
    34f6:	6f 90       	pop	r6
    34f8:	5f 90       	pop	r5
    34fa:	4f 90       	pop	r4
    34fc:	3f 90       	pop	r3
    34fe:	2f 90       	pop	r2
    3500:	08 95       	ret

00003502 <UnityAssertEqualMemory>:
                             const void* actual,
                             _UU32 length,
                             _UU32 num_elements,
                             const char* msg,
                             const UNITY_LINE_TYPE lineNumber)
{
    3502:	2f 92       	push	r2
    3504:	3f 92       	push	r3
    3506:	4f 92       	push	r4
    3508:	5f 92       	push	r5
    350a:	6f 92       	push	r6
    350c:	7f 92       	push	r7
    350e:	8f 92       	push	r8
    3510:	9f 92       	push	r9
    3512:	af 92       	push	r10
    3514:	bf 92       	push	r11
    3516:	cf 92       	push	r12
    3518:	df 92       	push	r13
    351a:	ef 92       	push	r14
    351c:	ff 92       	push	r15
    351e:	0f 93       	push	r16
    3520:	1f 93       	push	r17
    3522:	df 93       	push	r29
    3524:	cf 93       	push	r28
    3526:	00 d0       	rcall	.+0      	; 0x3528 <UnityAssertEqualMemory+0x26>
    3528:	00 d0       	rcall	.+0      	; 0x352a <UnityAssertEqualMemory+0x28>
    352a:	0f 92       	push	r0
    352c:	cd b7       	in	r28, 0x3d	; 61
    352e:	de b7       	in	r29, 0x3e	; 62
    3530:	b8 2e       	mov	r11, r24
    3532:	99 2e       	mov	r9, r25
    3534:	6a 83       	std	Y+2, r22	; 0x02
    3536:	7b 83       	std	Y+3, r23	; 0x03
    3538:	29 01       	movw	r4, r18
    353a:	3a 01       	movw	r6, r20
    353c:	16 01       	movw	r2, r12
    353e:	a9 82       	std	Y+1, r10	; 0x01
    unsigned char* expected_ptr = (unsigned char*)expected;
    unsigned char* actual_ptr = (unsigned char*)actual;
    _UU32 elements = num_elements;

    UNITY_SKIP_EXECUTION;
    3540:	80 91 c4 02 	lds	r24, 0x02C4
    3544:	88 23       	and	r24, r24
    3546:	09 f0       	breq	.+2      	; 0x354a <UnityAssertEqualMemory+0x48>
    3548:	8a c0       	rjmp	.+276    	; 0x365e <UnityAssertEqualMemory+0x15c>
    354a:	80 91 c5 02 	lds	r24, 0x02C5
    354e:	88 23       	and	r24, r24
    3550:	09 f0       	breq	.+2      	; 0x3554 <UnityAssertEqualMemory+0x52>
    3552:	85 c0       	rjmp	.+266    	; 0x365e <UnityAssertEqualMemory+0x15c>
  
    if ((elements == 0) || (length == 0))
    3554:	e1 14       	cp	r14, r1
    3556:	f1 04       	cpc	r15, r1
    3558:	01 05       	cpc	r16, r1
    355a:	11 05       	cpc	r17, r1
    355c:	29 f0       	breq	.+10     	; 0x3568 <UnityAssertEqualMemory+0x66>
    355e:	21 15       	cp	r18, r1
    3560:	31 05       	cpc	r19, r1
    3562:	41 05       	cpc	r20, r1
    3564:	51 05       	cpc	r21, r1
    3566:	41 f4       	brne	.+16     	; 0x3578 <UnityAssertEqualMemory+0x76>
    {
        UnityTestResultsFailBegin(lineNumber);
    3568:	89 81       	ldd	r24, Y+1	; 0x01
    356a:	0e 94 d8 13 	call	0x27b0	; 0x27b0 <UnityTestResultsFailBegin>
        UnityPrint(UnityStrPointless);
    356e:	80 91 bd 01 	lds	r24, 0x01BD
    3572:	90 91 be 01 	lds	r25, 0x01BE
    3576:	5d c0       	rjmp	.+186    	; 0x3632 <UnityAssertEqualMemory+0x130>
        UnityAddMsgIfSpecified(msg);
        UNITY_FAIL_AND_BAIL;
    }

    if (UnityCheckArraysForNull((void*)expected, (void*)actual, lineNumber, msg) == 1)
    3578:	8b 2d       	mov	r24, r11
    357a:	6a 81       	ldd	r22, Y+2	; 0x02
    357c:	7b 81       	ldd	r23, Y+3	; 0x03
    357e:	49 81       	ldd	r20, Y+1	; 0x01
    3580:	96 01       	movw	r18, r12
    3582:	0e 94 14 17 	call	0x2e28	; 0x2e28 <UnityCheckArraysForNull>
    3586:	01 97       	sbiw	r24, 0x01	; 1
    3588:	09 f4       	brne	.+2      	; 0x358c <UnityAssertEqualMemory+0x8a>
    358a:	69 c0       	rjmp	.+210    	; 0x365e <UnityAssertEqualMemory+0x15c>
                             _UU32 length,
                             _UU32 num_elements,
                             const char* msg,
                             const UNITY_LINE_TYPE lineNumber)
{
    unsigned char* expected_ptr = (unsigned char*)expected;
    358c:	2b 2d       	mov	r18, r11
    358e:	39 2d       	mov	r19, r9
    3590:	c9 01       	movw	r24, r18
    3592:	4c 01       	movw	r8, r24
    unsigned char* actual_ptr = (unsigned char*)actual;
    3594:	2a 81       	ldd	r18, Y+2	; 0x02
    3596:	3b 81       	ldd	r19, Y+3	; 0x03
    3598:	c9 01       	movw	r24, r18
    359a:	9d 83       	std	Y+5, r25	; 0x05
    359c:	8c 83       	std	Y+4, r24	; 0x04
    359e:	57 01       	movw	r10, r14
    35a0:	68 01       	movw	r12, r16
    35a2:	14 c0       	rjmp	.+40     	; 0x35cc <UnityAssertEqualMemory+0xca>
    if (UnityCheckArraysForNull((void*)expected, (void*)actual, lineNumber, msg) == 1)
        return;
        
    while (elements--)
    {
        if (memcmp((const void*)expected_ptr, (const void*)actual_ptr, length) != 0)
    35a4:	c4 01       	movw	r24, r8
    35a6:	6c 81       	ldd	r22, Y+4	; 0x04
    35a8:	7d 81       	ldd	r23, Y+5	; 0x05
    35aa:	a2 01       	movw	r20, r4
    35ac:	0e 94 87 1e 	call	0x3d0e	; 0x3d0e <memcmp>
    35b0:	00 97       	sbiw	r24, 0x00	; 0
    35b2:	21 f0       	breq	.+8      	; 0x35bc <UnityAssertEqualMemory+0xba>
        {
            Unity.CurrentTestFailed = 1;
    35b4:	81 e0       	ldi	r24, 0x01	; 1
    35b6:	80 93 c4 02 	sts	0x02C4, r24
    35ba:	16 c0       	rjmp	.+44     	; 0x35e8 <UnityAssertEqualMemory+0xe6>
                             const void* actual,
                             _UU32 length,
                             _UU32 num_elements,
                             const char* msg,
                             const UNITY_LINE_TYPE lineNumber)
{
    35bc:	84 0c       	add	r8, r4
    35be:	95 1c       	adc	r9, r5
    35c0:	2c 81       	ldd	r18, Y+4	; 0x04
    35c2:	3d 81       	ldd	r19, Y+5	; 0x05
    35c4:	24 0d       	add	r18, r4
    35c6:	35 1d       	adc	r19, r5
    35c8:	3d 83       	std	Y+5, r19	; 0x05
    35ca:	2c 83       	std	Y+4, r18	; 0x04
    }

    if (UnityCheckArraysForNull((void*)expected, (void*)actual, lineNumber, msg) == 1)
        return;
        
    while (elements--)
    35cc:	08 94       	sec
    35ce:	a1 08       	sbc	r10, r1
    35d0:	b1 08       	sbc	r11, r1
    35d2:	c1 08       	sbc	r12, r1
    35d4:	d1 08       	sbc	r13, r1
    35d6:	3f ef       	ldi	r19, 0xFF	; 255
    35d8:	a3 16       	cp	r10, r19
    35da:	3f ef       	ldi	r19, 0xFF	; 255
    35dc:	b3 06       	cpc	r11, r19
    35de:	3f ef       	ldi	r19, 0xFF	; 255
    35e0:	c3 06       	cpc	r12, r19
    35e2:	3f ef       	ldi	r19, 0xFF	; 255
    35e4:	d3 06       	cpc	r13, r19
    35e6:	f1 f6       	brne	.-68     	; 0x35a4 <UnityAssertEqualMemory+0xa2>
        }
        expected_ptr += length;
        actual_ptr += length;
    }

    if (Unity.CurrentTestFailed)
    35e8:	80 91 c4 02 	lds	r24, 0x02C4
    35ec:	88 23       	and	r24, r24
    35ee:	b9 f1       	breq	.+110    	; 0x365e <UnityAssertEqualMemory+0x15c>
    {
        UnityTestResultsFailBegin(lineNumber);
    35f0:	89 81       	ldd	r24, Y+1	; 0x01
    35f2:	0e 94 d8 13 	call	0x27b0	; 0x27b0 <UnityTestResultsFailBegin>
        if (num_elements > 1)
    35f6:	82 e0       	ldi	r24, 0x02	; 2
    35f8:	e8 16       	cp	r14, r24
    35fa:	f1 04       	cpc	r15, r1
    35fc:	01 05       	cpc	r16, r1
    35fe:	11 05       	cpc	r17, r1
    3600:	a0 f0       	brcs	.+40     	; 0x362a <UnityAssertEqualMemory+0x128>
        {
            UnityPrint(UnityStrElement);
    3602:	80 91 55 01 	lds	r24, 0x0155
    3606:	90 91 56 01 	lds	r25, 0x0156
    360a:	0e 94 ad 12 	call	0x255a	; 0x255a <UnityPrint>
            UnityPrintNumberByStyle((num_elements - elements - 1), UNITY_DISPLAY_STYLE_UINT);
    360e:	08 94       	sec
    3610:	e1 08       	sbc	r14, r1
    3612:	f1 08       	sbc	r15, r1
    3614:	01 09       	sbc	r16, r1
    3616:	11 09       	sbc	r17, r1
    3618:	ea 18       	sub	r14, r10
    361a:	fb 08       	sbc	r15, r11
    361c:	0c 09       	sbc	r16, r12
    361e:	1d 09       	sbc	r17, r13
    3620:	c8 01       	movw	r24, r16
    3622:	b7 01       	movw	r22, r14
    3624:	44 ea       	ldi	r20, 0xA4	; 164
    3626:	0e 94 9e 12 	call	0x253c	; 0x253c <UnityPrintNumberByStyle>
        }
        UnityPrint(UnityStrMemory);
    362a:	80 91 68 01 	lds	r24, 0x0168
    362e:	90 91 69 01 	lds	r25, 0x0169
    3632:	0e 94 ad 12 	call	0x255a	; 0x255a <UnityPrint>
        UnityAddMsgIfSpecified(msg);
    3636:	c1 01       	movw	r24, r2
    3638:	0e 94 fa 12 	call	0x25f4	; 0x25f4 <UnityAddMsgIfSpecified>
        UNITY_FAIL_AND_BAIL;
    363c:	81 e0       	ldi	r24, 0x01	; 1
    363e:	80 93 c4 02 	sts	0x02C4, r24
    3642:	60 91 81 03 	lds	r22, 0x0381
    3646:	70 91 82 03 	lds	r23, 0x0382
    364a:	8a e0       	ldi	r24, 0x0A	; 10
    364c:	90 e0       	ldi	r25, 0x00	; 0
    364e:	0e 94 db 1e 	call	0x3db6	; 0x3db6 <fputc>
    3652:	86 ec       	ldi	r24, 0xC6	; 198
    3654:	92 e0       	ldi	r25, 0x02	; 2
    3656:	61 e0       	ldi	r22, 0x01	; 1
    3658:	70 e0       	ldi	r23, 0x00	; 0
    365a:	0e 94 5e 1e 	call	0x3cbc	; 0x3cbc <longjmp>
    }
}
    365e:	0f 90       	pop	r0
    3660:	0f 90       	pop	r0
    3662:	0f 90       	pop	r0
    3664:	0f 90       	pop	r0
    3666:	0f 90       	pop	r0
    3668:	cf 91       	pop	r28
    366a:	df 91       	pop	r29
    366c:	1f 91       	pop	r17
    366e:	0f 91       	pop	r16
    3670:	ff 90       	pop	r15
    3672:	ef 90       	pop	r14
    3674:	df 90       	pop	r13
    3676:	cf 90       	pop	r12
    3678:	bf 90       	pop	r11
    367a:	af 90       	pop	r10
    367c:	9f 90       	pop	r9
    367e:	8f 90       	pop	r8
    3680:	7f 90       	pop	r7
    3682:	6f 90       	pop	r6
    3684:	5f 90       	pop	r5
    3686:	4f 90       	pop	r4
    3688:	3f 90       	pop	r3
    368a:	2f 90       	pop	r2
    368c:	08 95       	ret

0000368e <__subsf3>:
    368e:	50 58       	subi	r21, 0x80	; 128

00003690 <__addsf3>:
    3690:	bb 27       	eor	r27, r27
    3692:	aa 27       	eor	r26, r26
    3694:	0e d0       	rcall	.+28     	; 0x36b2 <__addsf3x>
    3696:	9f c0       	rjmp	.+318    	; 0x37d6 <__fp_round>
    3698:	90 d0       	rcall	.+288    	; 0x37ba <__fp_pscA>
    369a:	30 f0       	brcs	.+12     	; 0x36a8 <__addsf3+0x18>
    369c:	95 d0       	rcall	.+298    	; 0x37c8 <__fp_pscB>
    369e:	20 f0       	brcs	.+8      	; 0x36a8 <__addsf3+0x18>
    36a0:	31 f4       	brne	.+12     	; 0x36ae <__addsf3+0x1e>
    36a2:	9f 3f       	cpi	r25, 0xFF	; 255
    36a4:	11 f4       	brne	.+4      	; 0x36aa <__addsf3+0x1a>
    36a6:	1e f4       	brtc	.+6      	; 0x36ae <__addsf3+0x1e>
    36a8:	85 c0       	rjmp	.+266    	; 0x37b4 <__fp_nan>
    36aa:	0e f4       	brtc	.+2      	; 0x36ae <__addsf3+0x1e>
    36ac:	e0 95       	com	r30
    36ae:	e7 fb       	bst	r30, 7
    36b0:	7b c0       	rjmp	.+246    	; 0x37a8 <__fp_inf>

000036b2 <__addsf3x>:
    36b2:	e9 2f       	mov	r30, r25
    36b4:	a1 d0       	rcall	.+322    	; 0x37f8 <__fp_split3>
    36b6:	80 f3       	brcs	.-32     	; 0x3698 <__addsf3+0x8>
    36b8:	ba 17       	cp	r27, r26
    36ba:	62 07       	cpc	r22, r18
    36bc:	73 07       	cpc	r23, r19
    36be:	84 07       	cpc	r24, r20
    36c0:	95 07       	cpc	r25, r21
    36c2:	18 f0       	brcs	.+6      	; 0x36ca <__addsf3x+0x18>
    36c4:	71 f4       	brne	.+28     	; 0x36e2 <__addsf3x+0x30>
    36c6:	9e f5       	brtc	.+102    	; 0x372e <__addsf3x+0x7c>
    36c8:	b9 c0       	rjmp	.+370    	; 0x383c <__fp_zero>
    36ca:	0e f4       	brtc	.+2      	; 0x36ce <__addsf3x+0x1c>
    36cc:	e0 95       	com	r30
    36ce:	0b 2e       	mov	r0, r27
    36d0:	ba 2f       	mov	r27, r26
    36d2:	a0 2d       	mov	r26, r0
    36d4:	0b 01       	movw	r0, r22
    36d6:	b9 01       	movw	r22, r18
    36d8:	90 01       	movw	r18, r0
    36da:	0c 01       	movw	r0, r24
    36dc:	ca 01       	movw	r24, r20
    36de:	a0 01       	movw	r20, r0
    36e0:	11 24       	eor	r1, r1
    36e2:	ff 27       	eor	r31, r31
    36e4:	59 1b       	sub	r21, r25
    36e6:	99 f0       	breq	.+38     	; 0x370e <__addsf3x+0x5c>
    36e8:	59 3f       	cpi	r21, 0xF9	; 249
    36ea:	50 f4       	brcc	.+20     	; 0x3700 <__addsf3x+0x4e>
    36ec:	50 3e       	cpi	r21, 0xE0	; 224
    36ee:	68 f1       	brcs	.+90     	; 0x374a <__addsf3x+0x98>
    36f0:	1a 16       	cp	r1, r26
    36f2:	f0 40       	sbci	r31, 0x00	; 0
    36f4:	a2 2f       	mov	r26, r18
    36f6:	23 2f       	mov	r18, r19
    36f8:	34 2f       	mov	r19, r20
    36fa:	44 27       	eor	r20, r20
    36fc:	58 5f       	subi	r21, 0xF8	; 248
    36fe:	f3 cf       	rjmp	.-26     	; 0x36e6 <__addsf3x+0x34>
    3700:	46 95       	lsr	r20
    3702:	37 95       	ror	r19
    3704:	27 95       	ror	r18
    3706:	a7 95       	ror	r26
    3708:	f0 40       	sbci	r31, 0x00	; 0
    370a:	53 95       	inc	r21
    370c:	c9 f7       	brne	.-14     	; 0x3700 <__addsf3x+0x4e>
    370e:	7e f4       	brtc	.+30     	; 0x372e <__addsf3x+0x7c>
    3710:	1f 16       	cp	r1, r31
    3712:	ba 0b       	sbc	r27, r26
    3714:	62 0b       	sbc	r22, r18
    3716:	73 0b       	sbc	r23, r19
    3718:	84 0b       	sbc	r24, r20
    371a:	ba f0       	brmi	.+46     	; 0x374a <__addsf3x+0x98>
    371c:	91 50       	subi	r25, 0x01	; 1
    371e:	a1 f0       	breq	.+40     	; 0x3748 <__addsf3x+0x96>
    3720:	ff 0f       	add	r31, r31
    3722:	bb 1f       	adc	r27, r27
    3724:	66 1f       	adc	r22, r22
    3726:	77 1f       	adc	r23, r23
    3728:	88 1f       	adc	r24, r24
    372a:	c2 f7       	brpl	.-16     	; 0x371c <__addsf3x+0x6a>
    372c:	0e c0       	rjmp	.+28     	; 0x374a <__addsf3x+0x98>
    372e:	ba 0f       	add	r27, r26
    3730:	62 1f       	adc	r22, r18
    3732:	73 1f       	adc	r23, r19
    3734:	84 1f       	adc	r24, r20
    3736:	48 f4       	brcc	.+18     	; 0x374a <__addsf3x+0x98>
    3738:	87 95       	ror	r24
    373a:	77 95       	ror	r23
    373c:	67 95       	ror	r22
    373e:	b7 95       	ror	r27
    3740:	f7 95       	ror	r31
    3742:	9e 3f       	cpi	r25, 0xFE	; 254
    3744:	08 f0       	brcs	.+2      	; 0x3748 <__addsf3x+0x96>
    3746:	b3 cf       	rjmp	.-154    	; 0x36ae <__addsf3+0x1e>
    3748:	93 95       	inc	r25
    374a:	88 0f       	add	r24, r24
    374c:	08 f0       	brcs	.+2      	; 0x3750 <__addsf3x+0x9e>
    374e:	99 27       	eor	r25, r25
    3750:	ee 0f       	add	r30, r30
    3752:	97 95       	ror	r25
    3754:	87 95       	ror	r24
    3756:	08 95       	ret

00003758 <__cmpsf2>:
    3758:	03 d0       	rcall	.+6      	; 0x3760 <__fp_cmp>
    375a:	08 f4       	brcc	.+2      	; 0x375e <__cmpsf2+0x6>
    375c:	81 e0       	ldi	r24, 0x01	; 1
    375e:	08 95       	ret

00003760 <__fp_cmp>:
    3760:	99 0f       	add	r25, r25
    3762:	00 08       	sbc	r0, r0
    3764:	55 0f       	add	r21, r21
    3766:	aa 0b       	sbc	r26, r26
    3768:	e0 e8       	ldi	r30, 0x80	; 128
    376a:	fe ef       	ldi	r31, 0xFE	; 254
    376c:	16 16       	cp	r1, r22
    376e:	17 06       	cpc	r1, r23
    3770:	e8 07       	cpc	r30, r24
    3772:	f9 07       	cpc	r31, r25
    3774:	c0 f0       	brcs	.+48     	; 0x37a6 <__fp_cmp+0x46>
    3776:	12 16       	cp	r1, r18
    3778:	13 06       	cpc	r1, r19
    377a:	e4 07       	cpc	r30, r20
    377c:	f5 07       	cpc	r31, r21
    377e:	98 f0       	brcs	.+38     	; 0x37a6 <__fp_cmp+0x46>
    3780:	62 1b       	sub	r22, r18
    3782:	73 0b       	sbc	r23, r19
    3784:	84 0b       	sbc	r24, r20
    3786:	95 0b       	sbc	r25, r21
    3788:	39 f4       	brne	.+14     	; 0x3798 <__fp_cmp+0x38>
    378a:	0a 26       	eor	r0, r26
    378c:	61 f0       	breq	.+24     	; 0x37a6 <__fp_cmp+0x46>
    378e:	23 2b       	or	r18, r19
    3790:	24 2b       	or	r18, r20
    3792:	25 2b       	or	r18, r21
    3794:	21 f4       	brne	.+8      	; 0x379e <__fp_cmp+0x3e>
    3796:	08 95       	ret
    3798:	0a 26       	eor	r0, r26
    379a:	09 f4       	brne	.+2      	; 0x379e <__fp_cmp+0x3e>
    379c:	a1 40       	sbci	r26, 0x01	; 1
    379e:	a6 95       	lsr	r26
    37a0:	8f ef       	ldi	r24, 0xFF	; 255
    37a2:	81 1d       	adc	r24, r1
    37a4:	81 1d       	adc	r24, r1
    37a6:	08 95       	ret

000037a8 <__fp_inf>:
    37a8:	97 f9       	bld	r25, 7
    37aa:	9f 67       	ori	r25, 0x7F	; 127
    37ac:	80 e8       	ldi	r24, 0x80	; 128
    37ae:	70 e0       	ldi	r23, 0x00	; 0
    37b0:	60 e0       	ldi	r22, 0x00	; 0
    37b2:	08 95       	ret

000037b4 <__fp_nan>:
    37b4:	9f ef       	ldi	r25, 0xFF	; 255
    37b6:	80 ec       	ldi	r24, 0xC0	; 192
    37b8:	08 95       	ret

000037ba <__fp_pscA>:
    37ba:	00 24       	eor	r0, r0
    37bc:	0a 94       	dec	r0
    37be:	16 16       	cp	r1, r22
    37c0:	17 06       	cpc	r1, r23
    37c2:	18 06       	cpc	r1, r24
    37c4:	09 06       	cpc	r0, r25
    37c6:	08 95       	ret

000037c8 <__fp_pscB>:
    37c8:	00 24       	eor	r0, r0
    37ca:	0a 94       	dec	r0
    37cc:	12 16       	cp	r1, r18
    37ce:	13 06       	cpc	r1, r19
    37d0:	14 06       	cpc	r1, r20
    37d2:	05 06       	cpc	r0, r21
    37d4:	08 95       	ret

000037d6 <__fp_round>:
    37d6:	09 2e       	mov	r0, r25
    37d8:	03 94       	inc	r0
    37da:	00 0c       	add	r0, r0
    37dc:	11 f4       	brne	.+4      	; 0x37e2 <__fp_round+0xc>
    37de:	88 23       	and	r24, r24
    37e0:	52 f0       	brmi	.+20     	; 0x37f6 <__fp_round+0x20>
    37e2:	bb 0f       	add	r27, r27
    37e4:	40 f4       	brcc	.+16     	; 0x37f6 <__fp_round+0x20>
    37e6:	bf 2b       	or	r27, r31
    37e8:	11 f4       	brne	.+4      	; 0x37ee <__fp_round+0x18>
    37ea:	60 ff       	sbrs	r22, 0
    37ec:	04 c0       	rjmp	.+8      	; 0x37f6 <__fp_round+0x20>
    37ee:	6f 5f       	subi	r22, 0xFF	; 255
    37f0:	7f 4f       	sbci	r23, 0xFF	; 255
    37f2:	8f 4f       	sbci	r24, 0xFF	; 255
    37f4:	9f 4f       	sbci	r25, 0xFF	; 255
    37f6:	08 95       	ret

000037f8 <__fp_split3>:
    37f8:	57 fd       	sbrc	r21, 7
    37fa:	90 58       	subi	r25, 0x80	; 128
    37fc:	44 0f       	add	r20, r20
    37fe:	55 1f       	adc	r21, r21
    3800:	59 f0       	breq	.+22     	; 0x3818 <__fp_splitA+0x10>
    3802:	5f 3f       	cpi	r21, 0xFF	; 255
    3804:	71 f0       	breq	.+28     	; 0x3822 <__fp_splitA+0x1a>
    3806:	47 95       	ror	r20

00003808 <__fp_splitA>:
    3808:	88 0f       	add	r24, r24
    380a:	97 fb       	bst	r25, 7
    380c:	99 1f       	adc	r25, r25
    380e:	61 f0       	breq	.+24     	; 0x3828 <__fp_splitA+0x20>
    3810:	9f 3f       	cpi	r25, 0xFF	; 255
    3812:	79 f0       	breq	.+30     	; 0x3832 <__fp_splitA+0x2a>
    3814:	87 95       	ror	r24
    3816:	08 95       	ret
    3818:	12 16       	cp	r1, r18
    381a:	13 06       	cpc	r1, r19
    381c:	14 06       	cpc	r1, r20
    381e:	55 1f       	adc	r21, r21
    3820:	f2 cf       	rjmp	.-28     	; 0x3806 <__fp_split3+0xe>
    3822:	46 95       	lsr	r20
    3824:	f1 df       	rcall	.-30     	; 0x3808 <__fp_splitA>
    3826:	08 c0       	rjmp	.+16     	; 0x3838 <__fp_splitA+0x30>
    3828:	16 16       	cp	r1, r22
    382a:	17 06       	cpc	r1, r23
    382c:	18 06       	cpc	r1, r24
    382e:	99 1f       	adc	r25, r25
    3830:	f1 cf       	rjmp	.-30     	; 0x3814 <__fp_splitA+0xc>
    3832:	86 95       	lsr	r24
    3834:	71 05       	cpc	r23, r1
    3836:	61 05       	cpc	r22, r1
    3838:	08 94       	sec
    383a:	08 95       	ret

0000383c <__fp_zero>:
    383c:	e8 94       	clt

0000383e <__fp_szero>:
    383e:	bb 27       	eor	r27, r27
    3840:	66 27       	eor	r22, r22
    3842:	77 27       	eor	r23, r23
    3844:	cb 01       	movw	r24, r22
    3846:	97 f9       	bld	r25, 7
    3848:	08 95       	ret

0000384a <__gesf2>:
    384a:	8a df       	rcall	.-236    	; 0x3760 <__fp_cmp>
    384c:	08 f4       	brcc	.+2      	; 0x3850 <__gesf2+0x6>
    384e:	8f ef       	ldi	r24, 0xFF	; 255
    3850:	08 95       	ret

00003852 <__mulsf3>:
    3852:	0b d0       	rcall	.+22     	; 0x386a <__mulsf3x>
    3854:	c0 cf       	rjmp	.-128    	; 0x37d6 <__fp_round>
    3856:	b1 df       	rcall	.-158    	; 0x37ba <__fp_pscA>
    3858:	28 f0       	brcs	.+10     	; 0x3864 <__mulsf3+0x12>
    385a:	b6 df       	rcall	.-148    	; 0x37c8 <__fp_pscB>
    385c:	18 f0       	brcs	.+6      	; 0x3864 <__mulsf3+0x12>
    385e:	95 23       	and	r25, r21
    3860:	09 f0       	breq	.+2      	; 0x3864 <__mulsf3+0x12>
    3862:	a2 cf       	rjmp	.-188    	; 0x37a8 <__fp_inf>
    3864:	a7 cf       	rjmp	.-178    	; 0x37b4 <__fp_nan>
    3866:	11 24       	eor	r1, r1
    3868:	ea cf       	rjmp	.-44     	; 0x383e <__fp_szero>

0000386a <__mulsf3x>:
    386a:	c6 df       	rcall	.-116    	; 0x37f8 <__fp_split3>
    386c:	a0 f3       	brcs	.-24     	; 0x3856 <__mulsf3+0x4>

0000386e <__mulsf3_pse>:
    386e:	95 9f       	mul	r25, r21
    3870:	d1 f3       	breq	.-12     	; 0x3866 <__mulsf3+0x14>
    3872:	95 0f       	add	r25, r21
    3874:	50 e0       	ldi	r21, 0x00	; 0
    3876:	55 1f       	adc	r21, r21
    3878:	62 9f       	mul	r22, r18
    387a:	f0 01       	movw	r30, r0
    387c:	72 9f       	mul	r23, r18
    387e:	bb 27       	eor	r27, r27
    3880:	f0 0d       	add	r31, r0
    3882:	b1 1d       	adc	r27, r1
    3884:	63 9f       	mul	r22, r19
    3886:	aa 27       	eor	r26, r26
    3888:	f0 0d       	add	r31, r0
    388a:	b1 1d       	adc	r27, r1
    388c:	aa 1f       	adc	r26, r26
    388e:	64 9f       	mul	r22, r20
    3890:	66 27       	eor	r22, r22
    3892:	b0 0d       	add	r27, r0
    3894:	a1 1d       	adc	r26, r1
    3896:	66 1f       	adc	r22, r22
    3898:	82 9f       	mul	r24, r18
    389a:	22 27       	eor	r18, r18
    389c:	b0 0d       	add	r27, r0
    389e:	a1 1d       	adc	r26, r1
    38a0:	62 1f       	adc	r22, r18
    38a2:	73 9f       	mul	r23, r19
    38a4:	b0 0d       	add	r27, r0
    38a6:	a1 1d       	adc	r26, r1
    38a8:	62 1f       	adc	r22, r18
    38aa:	83 9f       	mul	r24, r19
    38ac:	a0 0d       	add	r26, r0
    38ae:	61 1d       	adc	r22, r1
    38b0:	22 1f       	adc	r18, r18
    38b2:	74 9f       	mul	r23, r20
    38b4:	33 27       	eor	r19, r19
    38b6:	a0 0d       	add	r26, r0
    38b8:	61 1d       	adc	r22, r1
    38ba:	23 1f       	adc	r18, r19
    38bc:	84 9f       	mul	r24, r20
    38be:	60 0d       	add	r22, r0
    38c0:	21 1d       	adc	r18, r1
    38c2:	82 2f       	mov	r24, r18
    38c4:	76 2f       	mov	r23, r22
    38c6:	6a 2f       	mov	r22, r26
    38c8:	11 24       	eor	r1, r1
    38ca:	9f 57       	subi	r25, 0x7F	; 127
    38cc:	50 40       	sbci	r21, 0x00	; 0
    38ce:	8a f0       	brmi	.+34     	; 0x38f2 <__mulsf3_pse+0x84>
    38d0:	e1 f0       	breq	.+56     	; 0x390a <__mulsf3_pse+0x9c>
    38d2:	88 23       	and	r24, r24
    38d4:	4a f0       	brmi	.+18     	; 0x38e8 <__mulsf3_pse+0x7a>
    38d6:	ee 0f       	add	r30, r30
    38d8:	ff 1f       	adc	r31, r31
    38da:	bb 1f       	adc	r27, r27
    38dc:	66 1f       	adc	r22, r22
    38de:	77 1f       	adc	r23, r23
    38e0:	88 1f       	adc	r24, r24
    38e2:	91 50       	subi	r25, 0x01	; 1
    38e4:	50 40       	sbci	r21, 0x00	; 0
    38e6:	a9 f7       	brne	.-22     	; 0x38d2 <__mulsf3_pse+0x64>
    38e8:	9e 3f       	cpi	r25, 0xFE	; 254
    38ea:	51 05       	cpc	r21, r1
    38ec:	70 f0       	brcs	.+28     	; 0x390a <__mulsf3_pse+0x9c>
    38ee:	5c cf       	rjmp	.-328    	; 0x37a8 <__fp_inf>
    38f0:	a6 cf       	rjmp	.-180    	; 0x383e <__fp_szero>
    38f2:	5f 3f       	cpi	r21, 0xFF	; 255
    38f4:	ec f3       	brlt	.-6      	; 0x38f0 <__mulsf3_pse+0x82>
    38f6:	98 3e       	cpi	r25, 0xE8	; 232
    38f8:	dc f3       	brlt	.-10     	; 0x38f0 <__mulsf3_pse+0x82>
    38fa:	86 95       	lsr	r24
    38fc:	77 95       	ror	r23
    38fe:	67 95       	ror	r22
    3900:	b7 95       	ror	r27
    3902:	f7 95       	ror	r31
    3904:	e7 95       	ror	r30
    3906:	9f 5f       	subi	r25, 0xFF	; 255
    3908:	c1 f7       	brne	.-16     	; 0x38fa <__mulsf3_pse+0x8c>
    390a:	fe 2b       	or	r31, r30
    390c:	88 0f       	add	r24, r24
    390e:	91 1d       	adc	r25, r1
    3910:	96 95       	lsr	r25
    3912:	87 95       	ror	r24
    3914:	97 f9       	bld	r25, 7
    3916:	08 95       	ret

00003918 <__mulsi3>:
    3918:	62 9f       	mul	r22, r18
    391a:	d0 01       	movw	r26, r0
    391c:	73 9f       	mul	r23, r19
    391e:	f0 01       	movw	r30, r0
    3920:	82 9f       	mul	r24, r18
    3922:	e0 0d       	add	r30, r0
    3924:	f1 1d       	adc	r31, r1
    3926:	64 9f       	mul	r22, r20
    3928:	e0 0d       	add	r30, r0
    392a:	f1 1d       	adc	r31, r1
    392c:	92 9f       	mul	r25, r18
    392e:	f0 0d       	add	r31, r0
    3930:	83 9f       	mul	r24, r19
    3932:	f0 0d       	add	r31, r0
    3934:	74 9f       	mul	r23, r20
    3936:	f0 0d       	add	r31, r0
    3938:	65 9f       	mul	r22, r21
    393a:	f0 0d       	add	r31, r0
    393c:	99 27       	eor	r25, r25
    393e:	72 9f       	mul	r23, r18
    3940:	b0 0d       	add	r27, r0
    3942:	e1 1d       	adc	r30, r1
    3944:	f9 1f       	adc	r31, r25
    3946:	63 9f       	mul	r22, r19
    3948:	b0 0d       	add	r27, r0
    394a:	e1 1d       	adc	r30, r1
    394c:	f9 1f       	adc	r31, r25
    394e:	bd 01       	movw	r22, r26
    3950:	cf 01       	movw	r24, r30
    3952:	11 24       	eor	r1, r1
    3954:	08 95       	ret

00003956 <__divmodhi4>:
    3956:	97 fb       	bst	r25, 7
    3958:	09 2e       	mov	r0, r25
    395a:	07 26       	eor	r0, r23
    395c:	0a d0       	rcall	.+20     	; 0x3972 <__divmodhi4_neg1>
    395e:	77 fd       	sbrc	r23, 7
    3960:	04 d0       	rcall	.+8      	; 0x396a <__divmodhi4_neg2>
    3962:	49 d0       	rcall	.+146    	; 0x39f6 <__udivmodhi4>
    3964:	06 d0       	rcall	.+12     	; 0x3972 <__divmodhi4_neg1>
    3966:	00 20       	and	r0, r0
    3968:	1a f4       	brpl	.+6      	; 0x3970 <__divmodhi4_exit>

0000396a <__divmodhi4_neg2>:
    396a:	70 95       	com	r23
    396c:	61 95       	neg	r22
    396e:	7f 4f       	sbci	r23, 0xFF	; 255

00003970 <__divmodhi4_exit>:
    3970:	08 95       	ret

00003972 <__divmodhi4_neg1>:
    3972:	f6 f7       	brtc	.-4      	; 0x3970 <__divmodhi4_exit>
    3974:	90 95       	com	r25
    3976:	81 95       	neg	r24
    3978:	9f 4f       	sbci	r25, 0xFF	; 255
    397a:	08 95       	ret

0000397c <__udivmodsi4>:
    397c:	a1 e2       	ldi	r26, 0x21	; 33
    397e:	1a 2e       	mov	r1, r26
    3980:	aa 1b       	sub	r26, r26
    3982:	bb 1b       	sub	r27, r27
    3984:	fd 01       	movw	r30, r26
    3986:	0d c0       	rjmp	.+26     	; 0x39a2 <__udivmodsi4_ep>

00003988 <__udivmodsi4_loop>:
    3988:	aa 1f       	adc	r26, r26
    398a:	bb 1f       	adc	r27, r27
    398c:	ee 1f       	adc	r30, r30
    398e:	ff 1f       	adc	r31, r31
    3990:	a2 17       	cp	r26, r18
    3992:	b3 07       	cpc	r27, r19
    3994:	e4 07       	cpc	r30, r20
    3996:	f5 07       	cpc	r31, r21
    3998:	20 f0       	brcs	.+8      	; 0x39a2 <__udivmodsi4_ep>
    399a:	a2 1b       	sub	r26, r18
    399c:	b3 0b       	sbc	r27, r19
    399e:	e4 0b       	sbc	r30, r20
    39a0:	f5 0b       	sbc	r31, r21

000039a2 <__udivmodsi4_ep>:
    39a2:	66 1f       	adc	r22, r22
    39a4:	77 1f       	adc	r23, r23
    39a6:	88 1f       	adc	r24, r24
    39a8:	99 1f       	adc	r25, r25
    39aa:	1a 94       	dec	r1
    39ac:	69 f7       	brne	.-38     	; 0x3988 <__udivmodsi4_loop>
    39ae:	60 95       	com	r22
    39b0:	70 95       	com	r23
    39b2:	80 95       	com	r24
    39b4:	90 95       	com	r25
    39b6:	9b 01       	movw	r18, r22
    39b8:	ac 01       	movw	r20, r24
    39ba:	bd 01       	movw	r22, r26
    39bc:	cf 01       	movw	r24, r30
    39be:	08 95       	ret

000039c0 <__divmodsi4>:
    39c0:	97 fb       	bst	r25, 7
    39c2:	09 2e       	mov	r0, r25
    39c4:	05 26       	eor	r0, r21
    39c6:	0e d0       	rcall	.+28     	; 0x39e4 <__divmodsi4_neg1>
    39c8:	57 fd       	sbrc	r21, 7
    39ca:	04 d0       	rcall	.+8      	; 0x39d4 <__divmodsi4_neg2>
    39cc:	d7 df       	rcall	.-82     	; 0x397c <__udivmodsi4>
    39ce:	0a d0       	rcall	.+20     	; 0x39e4 <__divmodsi4_neg1>
    39d0:	00 1c       	adc	r0, r0
    39d2:	38 f4       	brcc	.+14     	; 0x39e2 <__divmodsi4_exit>

000039d4 <__divmodsi4_neg2>:
    39d4:	50 95       	com	r21
    39d6:	40 95       	com	r20
    39d8:	30 95       	com	r19
    39da:	21 95       	neg	r18
    39dc:	3f 4f       	sbci	r19, 0xFF	; 255
    39de:	4f 4f       	sbci	r20, 0xFF	; 255
    39e0:	5f 4f       	sbci	r21, 0xFF	; 255

000039e2 <__divmodsi4_exit>:
    39e2:	08 95       	ret

000039e4 <__divmodsi4_neg1>:
    39e4:	f6 f7       	brtc	.-4      	; 0x39e2 <__divmodsi4_exit>
    39e6:	90 95       	com	r25
    39e8:	80 95       	com	r24
    39ea:	70 95       	com	r23
    39ec:	61 95       	neg	r22
    39ee:	7f 4f       	sbci	r23, 0xFF	; 255
    39f0:	8f 4f       	sbci	r24, 0xFF	; 255
    39f2:	9f 4f       	sbci	r25, 0xFF	; 255
    39f4:	08 95       	ret

000039f6 <__udivmodhi4>:
    39f6:	aa 1b       	sub	r26, r26
    39f8:	bb 1b       	sub	r27, r27
    39fa:	51 e1       	ldi	r21, 0x11	; 17
    39fc:	07 c0       	rjmp	.+14     	; 0x3a0c <__udivmodhi4_ep>

000039fe <__udivmodhi4_loop>:
    39fe:	aa 1f       	adc	r26, r26
    3a00:	bb 1f       	adc	r27, r27
    3a02:	a6 17       	cp	r26, r22
    3a04:	b7 07       	cpc	r27, r23
    3a06:	10 f0       	brcs	.+4      	; 0x3a0c <__udivmodhi4_ep>
    3a08:	a6 1b       	sub	r26, r22
    3a0a:	b7 0b       	sbc	r27, r23

00003a0c <__udivmodhi4_ep>:
    3a0c:	88 1f       	adc	r24, r24
    3a0e:	99 1f       	adc	r25, r25
    3a10:	5a 95       	dec	r21
    3a12:	a9 f7       	brne	.-22     	; 0x39fe <__udivmodhi4_loop>
    3a14:	80 95       	com	r24
    3a16:	90 95       	com	r25
    3a18:	bc 01       	movw	r22, r24
    3a1a:	cd 01       	movw	r24, r26
    3a1c:	08 95       	ret

00003a1e <strtol>:
    3a1e:	2f 92       	push	r2
    3a20:	3f 92       	push	r3
    3a22:	5f 92       	push	r5
    3a24:	6f 92       	push	r6
    3a26:	7f 92       	push	r7
    3a28:	8f 92       	push	r8
    3a2a:	9f 92       	push	r9
    3a2c:	af 92       	push	r10
    3a2e:	bf 92       	push	r11
    3a30:	cf 92       	push	r12
    3a32:	df 92       	push	r13
    3a34:	ef 92       	push	r14
    3a36:	ff 92       	push	r15
    3a38:	0f 93       	push	r16
    3a3a:	1f 93       	push	r17
    3a3c:	cf 93       	push	r28
    3a3e:	df 93       	push	r29
    3a40:	8c 01       	movw	r16, r24
    3a42:	1b 01       	movw	r2, r22
    3a44:	ea 01       	movw	r28, r20
    3a46:	61 15       	cp	r22, r1
    3a48:	71 05       	cpc	r23, r1
    3a4a:	19 f0       	breq	.+6      	; 0x3a52 <strtol+0x34>
    3a4c:	fb 01       	movw	r30, r22
    3a4e:	91 83       	std	Z+1, r25	; 0x01
    3a50:	80 83       	st	Z, r24
    3a52:	20 97       	sbiw	r28, 0x00	; 0
    3a54:	49 f0       	breq	.+18     	; 0x3a68 <strtol+0x4a>
    3a56:	ce 01       	movw	r24, r28
    3a58:	02 97       	sbiw	r24, 0x02	; 2
    3a5a:	83 97       	sbiw	r24, 0x23	; 35
    3a5c:	28 f0       	brcs	.+10     	; 0x3a68 <strtol+0x4a>
    3a5e:	20 e0       	ldi	r18, 0x00	; 0
    3a60:	30 e0       	ldi	r19, 0x00	; 0
    3a62:	40 e0       	ldi	r20, 0x00	; 0
    3a64:	50 e0       	ldi	r21, 0x00	; 0
    3a66:	f6 c0       	rjmp	.+492    	; 0x3c54 <strtol+0x236>
    3a68:	f8 01       	movw	r30, r16
    3a6a:	a1 90       	ld	r10, Z+
    3a6c:	8f 01       	movw	r16, r30
    3a6e:	8a 2d       	mov	r24, r10
    3a70:	90 e0       	ldi	r25, 0x00	; 0
    3a72:	0e 94 7f 1e 	call	0x3cfe	; 0x3cfe <isspace>
    3a76:	89 2b       	or	r24, r25
    3a78:	b9 f7       	brne	.-18     	; 0x3a68 <strtol+0x4a>
    3a7a:	fd e2       	ldi	r31, 0x2D	; 45
    3a7c:	af 16       	cp	r10, r31
    3a7e:	31 f4       	brne	.+12     	; 0x3a8c <strtol+0x6e>
    3a80:	f8 01       	movw	r30, r16
    3a82:	a1 90       	ld	r10, Z+
    3a84:	8f 01       	movw	r16, r30
    3a86:	55 24       	eor	r5, r5
    3a88:	53 94       	inc	r5
    3a8a:	07 c0       	rjmp	.+14     	; 0x3a9a <strtol+0x7c>
    3a8c:	fb e2       	ldi	r31, 0x2B	; 43
    3a8e:	af 16       	cp	r10, r31
    3a90:	19 f4       	brne	.+6      	; 0x3a98 <strtol+0x7a>
    3a92:	f8 01       	movw	r30, r16
    3a94:	a1 90       	ld	r10, Z+
    3a96:	8f 01       	movw	r16, r30
    3a98:	55 24       	eor	r5, r5
    3a9a:	20 97       	sbiw	r28, 0x00	; 0
    3a9c:	19 f0       	breq	.+6      	; 0x3aa4 <strtol+0x86>
    3a9e:	c0 31       	cpi	r28, 0x10	; 16
    3aa0:	d1 05       	cpc	r29, r1
    3aa2:	c1 f4       	brne	.+48     	; 0x3ad4 <strtol+0xb6>
    3aa4:	f0 e3       	ldi	r31, 0x30	; 48
    3aa6:	af 16       	cp	r10, r31
    3aa8:	79 f4       	brne	.+30     	; 0x3ac8 <strtol+0xaa>
    3aaa:	f8 01       	movw	r30, r16
    3aac:	80 81       	ld	r24, Z
    3aae:	88 37       	cpi	r24, 0x78	; 120
    3ab0:	11 f0       	breq	.+4      	; 0x3ab6 <strtol+0x98>
    3ab2:	88 35       	cpi	r24, 0x58	; 88
    3ab4:	49 f4       	brne	.+18     	; 0x3ac8 <strtol+0xaa>
    3ab6:	f8 01       	movw	r30, r16
    3ab8:	a1 80       	ldd	r10, Z+1	; 0x01
    3aba:	0e 5f       	subi	r16, 0xFE	; 254
    3abc:	1f 4f       	sbci	r17, 0xFF	; 255
    3abe:	f2 e0       	ldi	r31, 0x02	; 2
    3ac0:	5f 2a       	or	r5, r31
    3ac2:	c0 e1       	ldi	r28, 0x10	; 16
    3ac4:	d0 e0       	ldi	r29, 0x00	; 0
    3ac6:	06 c0       	rjmp	.+12     	; 0x3ad4 <strtol+0xb6>
    3ac8:	20 97       	sbiw	r28, 0x00	; 0
    3aca:	21 f4       	brne	.+8      	; 0x3ad4 <strtol+0xb6>
    3acc:	80 e3       	ldi	r24, 0x30	; 48
    3ace:	a8 16       	cp	r10, r24
    3ad0:	e9 f4       	brne	.+58     	; 0x3b0c <strtol+0xee>
    3ad2:	27 c0       	rjmp	.+78     	; 0x3b22 <strtol+0x104>
    3ad4:	c8 30       	cpi	r28, 0x08	; 8
    3ad6:	d1 05       	cpc	r29, r1
    3ad8:	31 f1       	breq	.+76     	; 0x3b26 <strtol+0x108>
    3ada:	c9 30       	cpi	r28, 0x09	; 9
    3adc:	d1 05       	cpc	r29, r1
    3ade:	24 f4       	brge	.+8      	; 0x3ae8 <strtol+0xca>
    3ae0:	c2 30       	cpi	r28, 0x02	; 2
    3ae2:	d1 05       	cpc	r29, r1
    3ae4:	31 f5       	brne	.+76     	; 0x3b32 <strtol+0x114>
    3ae6:	0c c0       	rjmp	.+24     	; 0x3b00 <strtol+0xe2>
    3ae8:	ca 30       	cpi	r28, 0x0A	; 10
    3aea:	d1 05       	cpc	r29, r1
    3aec:	89 f0       	breq	.+34     	; 0x3b10 <strtol+0xf2>
    3aee:	c0 31       	cpi	r28, 0x10	; 16
    3af0:	d1 05       	cpc	r29, r1
    3af2:	f9 f4       	brne	.+62     	; 0x3b32 <strtol+0x114>
    3af4:	c1 2c       	mov	r12, r1
    3af6:	d1 2c       	mov	r13, r1
    3af8:	e1 2c       	mov	r14, r1
    3afa:	b8 e0       	ldi	r27, 0x08	; 8
    3afc:	fb 2e       	mov	r15, r27
    3afe:	28 c0       	rjmp	.+80     	; 0x3b50 <strtol+0x132>
    3b00:	c1 2c       	mov	r12, r1
    3b02:	d1 2c       	mov	r13, r1
    3b04:	e1 2c       	mov	r14, r1
    3b06:	a0 e4       	ldi	r26, 0x40	; 64
    3b08:	fa 2e       	mov	r15, r26
    3b0a:	22 c0       	rjmp	.+68     	; 0x3b50 <strtol+0x132>
    3b0c:	ca e0       	ldi	r28, 0x0A	; 10
    3b0e:	d0 e0       	ldi	r29, 0x00	; 0
    3b10:	fc ec       	ldi	r31, 0xCC	; 204
    3b12:	cf 2e       	mov	r12, r31
    3b14:	fc ec       	ldi	r31, 0xCC	; 204
    3b16:	df 2e       	mov	r13, r31
    3b18:	fc ec       	ldi	r31, 0xCC	; 204
    3b1a:	ef 2e       	mov	r14, r31
    3b1c:	fc e0       	ldi	r31, 0x0C	; 12
    3b1e:	ff 2e       	mov	r15, r31
    3b20:	17 c0       	rjmp	.+46     	; 0x3b50 <strtol+0x132>
    3b22:	c8 e0       	ldi	r28, 0x08	; 8
    3b24:	d0 e0       	ldi	r29, 0x00	; 0
    3b26:	c1 2c       	mov	r12, r1
    3b28:	d1 2c       	mov	r13, r1
    3b2a:	e1 2c       	mov	r14, r1
    3b2c:	e0 e1       	ldi	r30, 0x10	; 16
    3b2e:	fe 2e       	mov	r15, r30
    3b30:	0f c0       	rjmp	.+30     	; 0x3b50 <strtol+0x132>
    3b32:	9e 01       	movw	r18, r28
    3b34:	44 27       	eor	r20, r20
    3b36:	37 fd       	sbrc	r19, 7
    3b38:	40 95       	com	r20
    3b3a:	54 2f       	mov	r21, r20
    3b3c:	60 e0       	ldi	r22, 0x00	; 0
    3b3e:	70 e0       	ldi	r23, 0x00	; 0
    3b40:	80 e0       	ldi	r24, 0x00	; 0
    3b42:	90 e8       	ldi	r25, 0x80	; 128
    3b44:	0e 94 be 1c 	call	0x397c	; 0x397c <__udivmodsi4>
    3b48:	c9 01       	movw	r24, r18
    3b4a:	da 01       	movw	r26, r20
    3b4c:	6c 01       	movw	r12, r24
    3b4e:	7d 01       	movw	r14, r26
    3b50:	20 e0       	ldi	r18, 0x00	; 0
    3b52:	30 e0       	ldi	r19, 0x00	; 0
    3b54:	40 e0       	ldi	r20, 0x00	; 0
    3b56:	50 e0       	ldi	r21, 0x00	; 0
    3b58:	60 e0       	ldi	r22, 0x00	; 0
    3b5a:	3e 01       	movw	r6, r28
    3b5c:	88 24       	eor	r8, r8
    3b5e:	77 fc       	sbrc	r7, 7
    3b60:	80 94       	com	r8
    3b62:	98 2c       	mov	r9, r8
    3b64:	70 ed       	ldi	r23, 0xD0	; 208
    3b66:	b7 2e       	mov	r11, r23
    3b68:	ba 0c       	add	r11, r10
    3b6a:	e9 e0       	ldi	r30, 0x09	; 9
    3b6c:	eb 15       	cp	r30, r11
    3b6e:	70 f4       	brcc	.+28     	; 0x3b8c <strtol+0x16e>
    3b70:	8a 2d       	mov	r24, r10
    3b72:	81 54       	subi	r24, 0x41	; 65
    3b74:	8a 31       	cpi	r24, 0x1A	; 26
    3b76:	18 f4       	brcc	.+6      	; 0x3b7e <strtol+0x160>
    3b78:	99 ec       	ldi	r25, 0xC9	; 201
    3b7a:	b9 2e       	mov	r11, r25
    3b7c:	06 c0       	rjmp	.+12     	; 0x3b8a <strtol+0x16c>
    3b7e:	8a 2d       	mov	r24, r10
    3b80:	81 56       	subi	r24, 0x61	; 97
    3b82:	8a 31       	cpi	r24, 0x1A	; 26
    3b84:	50 f5       	brcc	.+84     	; 0x3bda <strtol+0x1bc>
    3b86:	89 ea       	ldi	r24, 0xA9	; 169
    3b88:	b8 2e       	mov	r11, r24
    3b8a:	ba 0c       	add	r11, r10
    3b8c:	8b 2d       	mov	r24, r11
    3b8e:	90 e0       	ldi	r25, 0x00	; 0
    3b90:	8c 17       	cp	r24, r28
    3b92:	9d 07       	cpc	r25, r29
    3b94:	14 f5       	brge	.+68     	; 0x3bda <strtol+0x1bc>
    3b96:	6f 3f       	cpi	r22, 0xFF	; 255
    3b98:	e1 f0       	breq	.+56     	; 0x3bd2 <strtol+0x1b4>
    3b9a:	c2 16       	cp	r12, r18
    3b9c:	d3 06       	cpc	r13, r19
    3b9e:	e4 06       	cpc	r14, r20
    3ba0:	f5 06       	cpc	r15, r21
    3ba2:	b0 f0       	brcs	.+44     	; 0x3bd0 <strtol+0x1b2>
    3ba4:	ca 01       	movw	r24, r20
    3ba6:	b9 01       	movw	r22, r18
    3ba8:	a4 01       	movw	r20, r8
    3baa:	93 01       	movw	r18, r6
    3bac:	0e 94 8c 1c 	call	0x3918	; 0x3918 <__mulsi3>
    3bb0:	9b 01       	movw	r18, r22
    3bb2:	ac 01       	movw	r20, r24
    3bb4:	2b 0d       	add	r18, r11
    3bb6:	31 1d       	adc	r19, r1
    3bb8:	41 1d       	adc	r20, r1
    3bba:	51 1d       	adc	r21, r1
    3bbc:	21 30       	cpi	r18, 0x01	; 1
    3bbe:	f0 e0       	ldi	r31, 0x00	; 0
    3bc0:	3f 07       	cpc	r19, r31
    3bc2:	f0 e0       	ldi	r31, 0x00	; 0
    3bc4:	4f 07       	cpc	r20, r31
    3bc6:	f0 e8       	ldi	r31, 0x80	; 128
    3bc8:	5f 07       	cpc	r21, r31
    3bca:	10 f4       	brcc	.+4      	; 0x3bd0 <strtol+0x1b2>
    3bcc:	61 e0       	ldi	r22, 0x01	; 1
    3bce:	01 c0       	rjmp	.+2      	; 0x3bd2 <strtol+0x1b4>
    3bd0:	6f ef       	ldi	r22, 0xFF	; 255
    3bd2:	f8 01       	movw	r30, r16
    3bd4:	a1 90       	ld	r10, Z+
    3bd6:	8f 01       	movw	r16, r30
    3bd8:	c5 cf       	rjmp	.-118    	; 0x3b64 <strtol+0x146>
    3bda:	21 14       	cp	r2, r1
    3bdc:	31 04       	cpc	r3, r1
    3bde:	81 f0       	breq	.+32     	; 0x3c00 <strtol+0x1e2>
    3be0:	66 23       	and	r22, r22
    3be2:	31 f0       	breq	.+12     	; 0x3bf0 <strtol+0x1d2>
    3be4:	01 50       	subi	r16, 0x01	; 1
    3be6:	10 40       	sbci	r17, 0x00	; 0
    3be8:	f1 01       	movw	r30, r2
    3bea:	11 83       	std	Z+1, r17	; 0x01
    3bec:	00 83       	st	Z, r16
    3bee:	08 c0       	rjmp	.+16     	; 0x3c00 <strtol+0x1e2>
    3bf0:	51 fe       	sbrs	r5, 1
    3bf2:	1a c0       	rjmp	.+52     	; 0x3c28 <strtol+0x20a>
    3bf4:	02 50       	subi	r16, 0x02	; 2
    3bf6:	10 40       	sbci	r17, 0x00	; 0
    3bf8:	f1 01       	movw	r30, r2
    3bfa:	11 83       	std	Z+1, r17	; 0x01
    3bfc:	00 83       	st	Z, r16
    3bfe:	14 c0       	rjmp	.+40     	; 0x3c28 <strtol+0x20a>
    3c00:	67 ff       	sbrs	r22, 7
    3c02:	12 c0       	rjmp	.+36     	; 0x3c28 <strtol+0x20a>
    3c04:	50 fc       	sbrc	r5, 0
    3c06:	05 c0       	rjmp	.+10     	; 0x3c12 <strtol+0x1f4>
    3c08:	2f ef       	ldi	r18, 0xFF	; 255
    3c0a:	3f ef       	ldi	r19, 0xFF	; 255
    3c0c:	4f ef       	ldi	r20, 0xFF	; 255
    3c0e:	5f e7       	ldi	r21, 0x7F	; 127
    3c10:	04 c0       	rjmp	.+8      	; 0x3c1a <strtol+0x1fc>
    3c12:	20 e0       	ldi	r18, 0x00	; 0
    3c14:	30 e0       	ldi	r19, 0x00	; 0
    3c16:	40 e0       	ldi	r20, 0x00	; 0
    3c18:	50 e8       	ldi	r21, 0x80	; 128
    3c1a:	82 e2       	ldi	r24, 0x22	; 34
    3c1c:	90 e0       	ldi	r25, 0x00	; 0
    3c1e:	90 93 86 03 	sts	0x0386, r25
    3c22:	80 93 85 03 	sts	0x0385, r24
    3c26:	16 c0       	rjmp	.+44     	; 0x3c54 <strtol+0x236>
    3c28:	50 fe       	sbrs	r5, 0
    3c2a:	08 c0       	rjmp	.+16     	; 0x3c3c <strtol+0x21e>
    3c2c:	50 95       	com	r21
    3c2e:	40 95       	com	r20
    3c30:	30 95       	com	r19
    3c32:	21 95       	neg	r18
    3c34:	3f 4f       	sbci	r19, 0xFF	; 255
    3c36:	4f 4f       	sbci	r20, 0xFF	; 255
    3c38:	5f 4f       	sbci	r21, 0xFF	; 255
    3c3a:	0c c0       	rjmp	.+24     	; 0x3c54 <strtol+0x236>
    3c3c:	57 ff       	sbrs	r21, 7
    3c3e:	0a c0       	rjmp	.+20     	; 0x3c54 <strtol+0x236>
    3c40:	82 e2       	ldi	r24, 0x22	; 34
    3c42:	90 e0       	ldi	r25, 0x00	; 0
    3c44:	90 93 86 03 	sts	0x0386, r25
    3c48:	80 93 85 03 	sts	0x0385, r24
    3c4c:	2f ef       	ldi	r18, 0xFF	; 255
    3c4e:	3f ef       	ldi	r19, 0xFF	; 255
    3c50:	4f ef       	ldi	r20, 0xFF	; 255
    3c52:	5f e7       	ldi	r21, 0x7F	; 127
    3c54:	b9 01       	movw	r22, r18
    3c56:	ca 01       	movw	r24, r20
    3c58:	df 91       	pop	r29
    3c5a:	cf 91       	pop	r28
    3c5c:	1f 91       	pop	r17
    3c5e:	0f 91       	pop	r16
    3c60:	ff 90       	pop	r15
    3c62:	ef 90       	pop	r14
    3c64:	df 90       	pop	r13
    3c66:	cf 90       	pop	r12
    3c68:	bf 90       	pop	r11
    3c6a:	af 90       	pop	r10
    3c6c:	9f 90       	pop	r9
    3c6e:	8f 90       	pop	r8
    3c70:	7f 90       	pop	r7
    3c72:	6f 90       	pop	r6
    3c74:	5f 90       	pop	r5
    3c76:	3f 90       	pop	r3
    3c78:	2f 90       	pop	r2
    3c7a:	08 95       	ret

00003c7c <setjmp>:
    3c7c:	dc 01       	movw	r26, r24
    3c7e:	2d 92       	st	X+, r2
    3c80:	3d 92       	st	X+, r3
    3c82:	4d 92       	st	X+, r4
    3c84:	5d 92       	st	X+, r5
    3c86:	6d 92       	st	X+, r6
    3c88:	7d 92       	st	X+, r7
    3c8a:	8d 92       	st	X+, r8
    3c8c:	9d 92       	st	X+, r9
    3c8e:	ad 92       	st	X+, r10
    3c90:	bd 92       	st	X+, r11
    3c92:	cd 92       	st	X+, r12
    3c94:	dd 92       	st	X+, r13
    3c96:	ed 92       	st	X+, r14
    3c98:	fd 92       	st	X+, r15
    3c9a:	0d 93       	st	X+, r16
    3c9c:	1d 93       	st	X+, r17
    3c9e:	cd 93       	st	X+, r28
    3ca0:	dd 93       	st	X+, r29
    3ca2:	ff 91       	pop	r31
    3ca4:	ef 91       	pop	r30
    3ca6:	8d b7       	in	r24, 0x3d	; 61
    3ca8:	8d 93       	st	X+, r24
    3caa:	8e b7       	in	r24, 0x3e	; 62
    3cac:	8d 93       	st	X+, r24
    3cae:	8f b7       	in	r24, 0x3f	; 63
    3cb0:	8d 93       	st	X+, r24
    3cb2:	ed 93       	st	X+, r30
    3cb4:	fd 93       	st	X+, r31
    3cb6:	88 27       	eor	r24, r24
    3cb8:	99 27       	eor	r25, r25
    3cba:	09 94       	ijmp

00003cbc <longjmp>:
    3cbc:	dc 01       	movw	r26, r24
    3cbe:	cb 01       	movw	r24, r22
    3cc0:	81 30       	cpi	r24, 0x01	; 1
    3cc2:	91 05       	cpc	r25, r1
    3cc4:	81 1d       	adc	r24, r1
    3cc6:	2d 90       	ld	r2, X+
    3cc8:	3d 90       	ld	r3, X+
    3cca:	4d 90       	ld	r4, X+
    3ccc:	5d 90       	ld	r5, X+
    3cce:	6d 90       	ld	r6, X+
    3cd0:	7d 90       	ld	r7, X+
    3cd2:	8d 90       	ld	r8, X+
    3cd4:	9d 90       	ld	r9, X+
    3cd6:	ad 90       	ld	r10, X+
    3cd8:	bd 90       	ld	r11, X+
    3cda:	cd 90       	ld	r12, X+
    3cdc:	dd 90       	ld	r13, X+
    3cde:	ed 90       	ld	r14, X+
    3ce0:	fd 90       	ld	r15, X+
    3ce2:	0d 91       	ld	r16, X+
    3ce4:	1d 91       	ld	r17, X+
    3ce6:	cd 91       	ld	r28, X+
    3ce8:	dd 91       	ld	r29, X+
    3cea:	ed 91       	ld	r30, X+
    3cec:	fd 91       	ld	r31, X+
    3cee:	0d 90       	ld	r0, X+
    3cf0:	f8 94       	cli
    3cf2:	fe bf       	out	0x3e, r31	; 62
    3cf4:	0f be       	out	0x3f, r0	; 63
    3cf6:	ed bf       	out	0x3d, r30	; 61
    3cf8:	ed 91       	ld	r30, X+
    3cfa:	fd 91       	ld	r31, X+
    3cfc:	09 94       	ijmp

00003cfe <isspace>:
    3cfe:	91 11       	cpse	r25, r1
    3d00:	86 c0       	rjmp	.+268    	; 0x3e0e <__ctype_isfalse>
    3d02:	80 32       	cpi	r24, 0x20	; 32
    3d04:	19 f0       	breq	.+6      	; 0x3d0c <isspace+0xe>
    3d06:	89 50       	subi	r24, 0x09	; 9
    3d08:	85 50       	subi	r24, 0x05	; 5
    3d0a:	d0 f7       	brcc	.-12     	; 0x3d00 <isspace+0x2>
    3d0c:	08 95       	ret

00003d0e <memcmp>:
    3d0e:	fb 01       	movw	r30, r22
    3d10:	dc 01       	movw	r26, r24
    3d12:	04 c0       	rjmp	.+8      	; 0x3d1c <memcmp+0xe>
    3d14:	8d 91       	ld	r24, X+
    3d16:	01 90       	ld	r0, Z+
    3d18:	80 19       	sub	r24, r0
    3d1a:	21 f4       	brne	.+8      	; 0x3d24 <memcmp+0x16>
    3d1c:	41 50       	subi	r20, 0x01	; 1
    3d1e:	50 40       	sbci	r21, 0x00	; 0
    3d20:	c8 f7       	brcc	.-14     	; 0x3d14 <memcmp+0x6>
    3d22:	88 1b       	sub	r24, r24
    3d24:	99 0b       	sbc	r25, r25
    3d26:	08 95       	ret

00003d28 <memcpy>:
    3d28:	fb 01       	movw	r30, r22
    3d2a:	dc 01       	movw	r26, r24
    3d2c:	02 c0       	rjmp	.+4      	; 0x3d32 <memcpy+0xa>
    3d2e:	01 90       	ld	r0, Z+
    3d30:	0d 92       	st	X+, r0
    3d32:	41 50       	subi	r20, 0x01	; 1
    3d34:	50 40       	sbci	r21, 0x00	; 0
    3d36:	d8 f7       	brcc	.-10     	; 0x3d2e <memcpy+0x6>
    3d38:	08 95       	ret

00003d3a <strncmp>:
    3d3a:	fb 01       	movw	r30, r22
    3d3c:	dc 01       	movw	r26, r24
    3d3e:	41 50       	subi	r20, 0x01	; 1
    3d40:	50 40       	sbci	r21, 0x00	; 0
    3d42:	30 f0       	brcs	.+12     	; 0x3d50 <strncmp+0x16>
    3d44:	8d 91       	ld	r24, X+
    3d46:	01 90       	ld	r0, Z+
    3d48:	80 19       	sub	r24, r0
    3d4a:	19 f4       	brne	.+6      	; 0x3d52 <strncmp+0x18>
    3d4c:	00 20       	and	r0, r0
    3d4e:	b9 f7       	brne	.-18     	; 0x3d3e <strncmp+0x4>
    3d50:	88 1b       	sub	r24, r24
    3d52:	99 0b       	sbc	r25, r25
    3d54:	08 95       	ret

00003d56 <strncpy>:
    3d56:	fb 01       	movw	r30, r22
    3d58:	dc 01       	movw	r26, r24
    3d5a:	41 50       	subi	r20, 0x01	; 1
    3d5c:	50 40       	sbci	r21, 0x00	; 0
    3d5e:	48 f0       	brcs	.+18     	; 0x3d72 <strncpy+0x1c>
    3d60:	01 90       	ld	r0, Z+
    3d62:	0d 92       	st	X+, r0
    3d64:	00 20       	and	r0, r0
    3d66:	c9 f7       	brne	.-14     	; 0x3d5a <strncpy+0x4>
    3d68:	01 c0       	rjmp	.+2      	; 0x3d6c <strncpy+0x16>
    3d6a:	1d 92       	st	X+, r1
    3d6c:	41 50       	subi	r20, 0x01	; 1
    3d6e:	50 40       	sbci	r21, 0x00	; 0
    3d70:	e0 f7       	brcc	.-8      	; 0x3d6a <strncpy+0x14>
    3d72:	08 95       	ret

00003d74 <itoa>:
    3d74:	fb 01       	movw	r30, r22
    3d76:	9f 01       	movw	r18, r30
    3d78:	e8 94       	clt
    3d7a:	42 30       	cpi	r20, 0x02	; 2
    3d7c:	c4 f0       	brlt	.+48     	; 0x3dae <itoa+0x3a>
    3d7e:	45 32       	cpi	r20, 0x25	; 37
    3d80:	b4 f4       	brge	.+44     	; 0x3dae <itoa+0x3a>
    3d82:	4a 30       	cpi	r20, 0x0A	; 10
    3d84:	29 f4       	brne	.+10     	; 0x3d90 <itoa+0x1c>
    3d86:	97 fb       	bst	r25, 7
    3d88:	1e f4       	brtc	.+6      	; 0x3d90 <itoa+0x1c>
    3d8a:	90 95       	com	r25
    3d8c:	81 95       	neg	r24
    3d8e:	9f 4f       	sbci	r25, 0xFF	; 255
    3d90:	64 2f       	mov	r22, r20
    3d92:	77 27       	eor	r23, r23
    3d94:	0e 94 fb 1c 	call	0x39f6	; 0x39f6 <__udivmodhi4>
    3d98:	80 5d       	subi	r24, 0xD0	; 208
    3d9a:	8a 33       	cpi	r24, 0x3A	; 58
    3d9c:	0c f0       	brlt	.+2      	; 0x3da0 <itoa+0x2c>
    3d9e:	89 5d       	subi	r24, 0xD9	; 217
    3da0:	81 93       	st	Z+, r24
    3da2:	cb 01       	movw	r24, r22
    3da4:	00 97       	sbiw	r24, 0x00	; 0
    3da6:	a1 f7       	brne	.-24     	; 0x3d90 <itoa+0x1c>
    3da8:	16 f4       	brtc	.+4      	; 0x3dae <itoa+0x3a>
    3daa:	5d e2       	ldi	r21, 0x2D	; 45
    3dac:	51 93       	st	Z+, r21
    3dae:	10 82       	st	Z, r1
    3db0:	c9 01       	movw	r24, r18
    3db2:	0c 94 0a 1f 	jmp	0x3e14	; 0x3e14 <strrev>

00003db6 <fputc>:
    3db6:	0f 93       	push	r16
    3db8:	1f 93       	push	r17
    3dba:	cf 93       	push	r28
    3dbc:	df 93       	push	r29
    3dbe:	8c 01       	movw	r16, r24
    3dc0:	eb 01       	movw	r28, r22
    3dc2:	8b 81       	ldd	r24, Y+3	; 0x03
    3dc4:	81 ff       	sbrs	r24, 1
    3dc6:	1b c0       	rjmp	.+54     	; 0x3dfe <fputc+0x48>
    3dc8:	82 ff       	sbrs	r24, 2
    3dca:	0d c0       	rjmp	.+26     	; 0x3de6 <fputc+0x30>
    3dcc:	2e 81       	ldd	r18, Y+6	; 0x06
    3dce:	3f 81       	ldd	r19, Y+7	; 0x07
    3dd0:	8c 81       	ldd	r24, Y+4	; 0x04
    3dd2:	9d 81       	ldd	r25, Y+5	; 0x05
    3dd4:	28 17       	cp	r18, r24
    3dd6:	39 07       	cpc	r19, r25
    3dd8:	64 f4       	brge	.+24     	; 0x3df2 <fputc+0x3c>
    3dda:	e8 81       	ld	r30, Y
    3ddc:	f9 81       	ldd	r31, Y+1	; 0x01
    3dde:	01 93       	st	Z+, r16
    3de0:	f9 83       	std	Y+1, r31	; 0x01
    3de2:	e8 83       	st	Y, r30
    3de4:	06 c0       	rjmp	.+12     	; 0x3df2 <fputc+0x3c>
    3de6:	e8 85       	ldd	r30, Y+8	; 0x08
    3de8:	f9 85       	ldd	r31, Y+9	; 0x09
    3dea:	80 2f       	mov	r24, r16
    3dec:	09 95       	icall
    3dee:	89 2b       	or	r24, r25
    3df0:	31 f4       	brne	.+12     	; 0x3dfe <fputc+0x48>
    3df2:	8e 81       	ldd	r24, Y+6	; 0x06
    3df4:	9f 81       	ldd	r25, Y+7	; 0x07
    3df6:	01 96       	adiw	r24, 0x01	; 1
    3df8:	9f 83       	std	Y+7, r25	; 0x07
    3dfa:	8e 83       	std	Y+6, r24	; 0x06
    3dfc:	02 c0       	rjmp	.+4      	; 0x3e02 <fputc+0x4c>
    3dfe:	0f ef       	ldi	r16, 0xFF	; 255
    3e00:	1f ef       	ldi	r17, 0xFF	; 255
    3e02:	c8 01       	movw	r24, r16
    3e04:	df 91       	pop	r29
    3e06:	cf 91       	pop	r28
    3e08:	1f 91       	pop	r17
    3e0a:	0f 91       	pop	r16
    3e0c:	08 95       	ret

00003e0e <__ctype_isfalse>:
    3e0e:	99 27       	eor	r25, r25
    3e10:	88 27       	eor	r24, r24

00003e12 <__ctype_istrue>:
    3e12:	08 95       	ret

00003e14 <strrev>:
    3e14:	dc 01       	movw	r26, r24
    3e16:	fc 01       	movw	r30, r24
    3e18:	67 2f       	mov	r22, r23
    3e1a:	71 91       	ld	r23, Z+
    3e1c:	77 23       	and	r23, r23
    3e1e:	e1 f7       	brne	.-8      	; 0x3e18 <strrev+0x4>
    3e20:	32 97       	sbiw	r30, 0x02	; 2
    3e22:	04 c0       	rjmp	.+8      	; 0x3e2c <strrev+0x18>
    3e24:	7c 91       	ld	r23, X
    3e26:	6d 93       	st	X+, r22
    3e28:	70 83       	st	Z, r23
    3e2a:	62 91       	ld	r22, -Z
    3e2c:	ae 17       	cp	r26, r30
    3e2e:	bf 07       	cpc	r27, r31
    3e30:	c8 f3       	brcs	.-14     	; 0x3e24 <strrev+0x10>
    3e32:	08 95       	ret

00003e34 <_exit>:
    3e34:	f8 94       	cli

00003e36 <__stop_program>:
    3e36:	ff cf       	rjmp	.-2      	; 0x3e36 <__stop_program>
